(lp1
(lp2
S'Morgan'
p3
aS'bicep curls'
p4
aI0
aF9.5367431640625e-07
aI0
aI0
aI0
aI0
aI0
aI0
aI0
aI0
aI0
aa(lp5
g3
ag4
aI0
aF0.16863799095153809
aF-0.089999999999999997
aF0.91000000000000003
aF-0.11
aI70
aI178
aI-102
aF87.400000000000006
aF-228.16
aF176.63999999999999
aa(lp6
g3
ag4
aI0
aF0.34697198867797852
aF-0.089999999999999997
aF0.91000000000000003
aF-0.11
aI67
aI150
aI-82
aF88.319999999999993
aF-230
aF175.72
aa(lp7
g3
ag4
aI0
aF0.44715595245361328
aF-0.089999999999999997
aF0.91000000000000003
aF-0.11
aI154
aI163
aI-81
aF91.079999999999998
aF-232.75999999999999
aF175.72
aa(lp8
g3
ag4
aI0
aF0.54772782325744629
aF-0.089999999999999997
aF0.91000000000000003
aF-0.11
aI137
aI186
aI-74
aF89.239999999999995
aF-230.91999999999999
aF176.63999999999999
aa(lp9
g3
ag4
aI0
aF0.64739489555358887
aF-0.080000000000000002
aF0.91000000000000003
aF-0.11
aI133
aI64
aI-40
aF87.400000000000006
aF-231.84
aF176.63999999999999
aa(lp10
g3
ag4
aI0
aF0.7477419376373291
aF-0.12
aF0.93000000000000005
aF-0.13
aI1372
aI-1739
aI-1691
aF92
aF-229.08000000000001
aF182.16
aa(lp11
g3
ag4
aI0
aF0.84775900840759277
aF-0.23000000000000001
aF0.92000000000000004
aF-0.20999999999999999
aI5568
aI-2190
aI-7657
aF142.59999999999999
aF-227.24000000000001
aF208.84
aa(lp12
g3
ag4
aI0
aF0.96961188316345215
aF-0.35999999999999999
aF0.88
aF-0.27000000000000002
aI8208
aI-2780
aI-11550
aF241.03999999999999
aF-201.47999999999999
aF256.68000000000001
aa(lp13
g3
ag4
aI0
aF1.085784912109375
aF-0.52000000000000002
aF0.77000000000000002
aF-0.31
aI8721
aI-4907
aI-16148
aF364.31999999999999
aF-120.52
aF300.83999999999997
aa(lp14
g3
ag4
aI0
aF1.2472829818725586
aF-0.68000000000000005
aF0.55000000000000004
aF-0.31
aI5961
aI-4657
aI-18968
aF429.63999999999999
aF-59.799999999999997
aF310.04000000000002
aa(lp15
g3
ag4
aI0
aF1.3472030162811279
aF-0.73999999999999999
aF0.26000000000000001
aF-0.23999999999999999
aI3251
aI-7047
aI-20478
aF529.91999999999996
aF96.599999999999994
aF290.72000000000003
aa(lp16
g3
ag4
aI0
aF1.4641790390014648
aF-0.69999999999999996
aF-0.10000000000000001
aF-0.16
aI-1294
aI-7749
aI-19622
aF575
aF272.31999999999999
aF233.68000000000001
aa(lp17
g3
ag4
aI0
aF1.5805628299713135
aF-0.55000000000000004
aF-0.34999999999999998
aF-0.080000000000000002
aI-3640
aI-5023
aI-13928
aF551.08000000000004
aF415.83999999999997
aF184.91999999999999
aa(lp18
g3
ag4
aI0
aF1.7471630573272705
aF-0.44
aF-0.56000000000000005
aF-0.050000000000000003
aI-1118
aI-3748
aI-4607
aF517.96000000000004
aF486.68000000000001
aF163.75999999999999
aa(lp19
g3
ag4
aI0
aF1.8718149662017822
aF-0.40000000000000002
aF-0.67000000000000004
aF-0.02
aI2422
aI1826
aI5932
aF517.03999999999996
aF494.04000000000002
aF150.88
aa(lp20
g3
ag4
aI0
aF1.9542560577392578
aF-0.40999999999999998
aF-0.66000000000000003
aF0
aI3322
aI5754
aI14324
aF560.27999999999997
aF424.12
aF161
aa(lp21
g3
ag4
aI0
aF2.0957708358764648
aF-0.58999999999999997
aF-0.54000000000000004
aF-0
aI2646
aI5940
aI17197
aF598.91999999999996
aF295.31999999999999
aF193.19999999999999
aa(lp22
g3
ag4
aI0
aF2.2463719844818115
aF-0.75
aF-0.34000000000000002
aF-0.02
aI-574
aI4585
aI17478
aF2508.8400000000001
aF15722.799999999999
aF0.92000000000000004
aa(lp23
g3
ag4
aI0
aF2.3505890369415283
aF-0.75
aF-0.070000000000000007
aF-0.11
aI-2262
aI7648
aI17948
aF558.44000000000005
aF64.400000000000006
aF256.68000000000001
aa(lp24
g3
ag4
aI0
aF2.4508209228515625
aF-0.79000000000000004
aF0.26000000000000001
aF-0.17999999999999999
aI-4655
aI6920
aI15298
aF460.92000000000002
aF-69.920000000000002
aF290.72000000000003
aa(lp25
g3
ag4
aI0
aF2.6056818962097168
aF-0.72999999999999998
aF0.54000000000000004
aF-0.28000000000000003
aI-5985
aI2719
aI12935
aF317.39999999999998
aF-161
aF287.95999999999998
aa(lp26
g3
ag4
aI0
aF2.7476420402526855
aF-0.56999999999999995
aF0.70999999999999996
aF-0.31
aI-3919
aI878
aI9245
aF210.68000000000001
aF-204.24000000000001
aF255.75999999999999
aa(lp27
g3
ag4
aI0
aF2.8475780487060547
aF-0.41999999999999998
aF0.79000000000000004
aF-0.28000000000000003
aI-1986
aI-402
aI6715
aF142.59999999999999
aF-218.03999999999999
aF231.84
aa(lp28
g3
ag4
aI0
aF2.970599889755249
aF-0.35999999999999999
aF0.85999999999999999
aF-0.28000000000000003
aI1185
aI-224
aI-1149
aF113.16
aF-212.52000000000001
aF228.16
aa(lp29
g3
ag4
aI0
aF3.0893590450286865
aF-0.38
aF0.87
aF-0.29999999999999999
aI5291
aI-3992
aI-10053
aF172.96000000000001
aF-207
aF252.08000000000001
aa(lp30
g3
ag4
aI0
aF3.2464978694915771
aF-0.52000000000000002
aF0.85999999999999999
aF-0.29999999999999999
aI7607
aI-9629
aI-17684
aF328.44
aF-158.24000000000001
aF287.04000000000002
aa(lp31
g3
ag4
aI0
aF3.3474328517913818
aF-0.75
aF0.66000000000000003
aF-0.22
aI2879
aI-13176
aI-24331
aF436.07999999999998
aF-103.04000000000001
aF283.36000000000001
aa(lp32
g3
ag4
aI0
aF3.4594728946685791
aF-0.81000000000000005
aF0.37
aF-0.10000000000000001
aI-3459
aI-5785
aI-24790
aF598.91999999999996
aF82.799999999999997
aF215.28
aa(lp33
g3
ag4
aI0
aF3.608151912689209
aF-0.69999999999999996
aF0.01
aF-0.029999999999999999
aI-6749
aI-1474
aI-21505
aF620.08000000000004
aF284.27999999999997
aF162.84
aa(lp34
g3
ag4
aI0
aF3.7475090026855469
aF-0.48999999999999999
aF-0.28000000000000003
aF0.01
aI-4195
aI1331
aI-12630
aF552
aF438.83999999999997
aF166.52000000000001
aa(lp35
g3
ag4
aI0
aF3.8471269607543945
aF-0.32000000000000001
aF-0.53000000000000003
aF-0.040000000000000001
aI-580
aI-193
aI427
aF495.88
aF494.95999999999998
aF184.91999999999999
aa(lp36
g3
ag4
aI0
aF3.966951847076416
aF-0.32000000000000001
aF-0.62
aF-0.059999999999999998
aI2824
aI3141
aI11737
aF514.27999999999997
aF466.44
aF185.84
aa(lp37
g3
ag4
aI0
aF4.0832419395446777
aF-0.51000000000000001
aF-0.56000000000000005
aF-0.050000000000000003
aI1799
aI5007
aI17393
aF567.63999999999999
aF360.63999999999999
aF199.63999999999999
aa(lp38
g3
ag4
aI0
aF4.2471270561218262
aF-0.65000000000000002
aF-0.39000000000000001
aF-0.070000000000000007
aI-1077
aI3813
aI18762
aF586.96000000000004
aF203.31999999999999
aF235.52000000000001
aa(lp39
g3
ag4
aI0
aF4.3474929332733154
aF-0.66000000000000003
aF-0.089999999999999997
aF-0.16
aI-4543
aI7462
aI18154
aF524.39999999999998
aF35.880000000000003
aF282.44
aa(lp40
g3
ag4
aI0
aF4.478226900100708
aF-0.80000000000000004
aF0.20999999999999999
aF-0.26000000000000001
aI-4870
aI2702
aI15933
aF478.39999999999998
aF-37.719999999999999
aF291.63999999999999
aa(lp41
g3
ag4
aI0
aF4.6466679573059082
aF-0.64000000000000001
aF0.48999999999999999
aF-0.28999999999999998
aI-6270
aI4391
aI14218
aF361.56
aF-144.44
aF289.80000000000001
aa(lp42
g3
ag4
aI0
aF4.7470779418945312
aF-0.56000000000000005
aF0.67000000000000004
aF-0.32000000000000001
aI-5377
aI5900
aI13640
aF230.91999999999999
aF-202.40000000000001
aF260.36000000000001
aa(lp43
g3
ag4
aI0
aF4.8744230270385742
aF-0.38
aF0.81000000000000005
aF-0.34000000000000002
aI-3970
aI9323
aI6224
aF-20961.279999999999
aF-14602.24
aF296.24000000000001
aa(lp44
g3
ag4
aI0
aF4.9980118274688721
aF-0.29999999999999999
aF0.87
aF-0.35999999999999999
aI3376
aI-3132
aI-2885
aF45.079999999999998
aF-209.75999999999999
aF185.84
aa(lp45
g3
ag4
aI0
aF5.1474418640136719
aF-0.34999999999999998
aF0.90000000000000002
aF-0.38
aI8677
aI-5972
aI-11549
aF118.68000000000001
aF-205.16
aF239.19999999999999
aa(lp46
g3
ag4
aI0
aF5.2463178634643555
aF-0.5
aF0.84999999999999998
aF-0.41999999999999998
aI11277
aI-9222
aI-19260
aF278.75999999999999
aF-152.72
aF304.51999999999998
aa(lp47
g3
ag4
aI0
aF5.3554019927978516
aF-0.69999999999999996
aF0.57999999999999996
aF-0.35999999999999999
aI7624
aI-12774
aI-25584
aF478.39999999999998
aF3.6800000000000002
aF307.27999999999997
aa(lp48
g3
ag4
aI0
aF5.4720048904418945
aF-0.72999999999999998
aF0.26000000000000001
aF-0.23999999999999999
aI812
aI-8109
aI-24471
aF577.75999999999999
aF225.40000000000001
aF243.80000000000001
aa(lp49
g3
ag4
aI0
aF5.6107120513916016
aF-0.60999999999999999
aF-0.12
aF-0.14000000000000001
aI-2245
aI-6750
aI-18532
aF561.20000000000005
aF395.60000000000002
aF187.68000000000001
aa(lp50
g3
ag4
aI0
aF5.7531800270080566
aF-0.42999999999999999
aF-0.41999999999999998
aF-0.059999999999999998
aI-1744
aI-3183
aI-9700
aF536.36000000000001
aF453.56
aF171.12
aa(lp51
g3
ag4
aI0
aF5.8720078468322754
aF-0.34999999999999998
aF-0.58999999999999997
aF-0.040000000000000001
aI1110
aI268
aI4337
aF508.75999999999999
aF503.24000000000001
aF153.63999999999999
aa(lp52
g3
ag4
aI0
aF5.9869558811187744
aF-0.38
aF-0.63
aF-0.01
aI2269
aI4267
aI14631
aF544.63999999999999
aF456.31999999999999
aF158.24000000000001
aa(lp53
g3
ag4
aI0
aF6.1476619243621826
aF-0.57999999999999996
aF-0.52000000000000002
aF-0.02
aI1311
aI5532
aI18304
aF592.48000000000002
aF325.68000000000001
aF188.59999999999999
aa(lp54
g3
ag4
aI0
aF6.2466700077056885
aF-0.77000000000000002
aF-0.33000000000000002
aF-0.080000000000000002
aI-806
aI5082
aI17229
aF586.96000000000004
aF167.44
aF235.52000000000001
aa(lp55
g3
ag4
aI0
aF6.3594498634338379
aF-0.81999999999999995
aF-0.059999999999999998
aF-0.16
aI-2959
aI6004
aI15803
aF529
aF23.920000000000002
aF280.60000000000002
aa(lp56
g3
ag4
aI0
aF6.4830758571624756
aF-0.73999999999999999
aF0.20999999999999999
aF-0.20000000000000001
aI-4223
aI6628
aI14235
aF422.27999999999997
aF-91.079999999999998
aF299
aa(lp57
g3
ag4
aI0
aF6.6467888355255127
aF-0.67000000000000004
aF0.45000000000000001
aF-0.25
aI-5438
aI2281
aI12438
aF313.72000000000003
aF-162.84
aF284.27999999999997
aa(lp58
g3
ag4
aI0
aF6.7466230392456055
aF-0.53000000000000003
aF0.65000000000000002
aF-0.28999999999999998
aI-5270
aI5914
aI10019
aF261.27999999999997
aF-187.68000000000001
aF273.24000000000001
aa(lp59
g3
ag4
aI0
aF6.8681638240814209
aF-0.40999999999999998
aF0.76000000000000001
aF-0.31
aI-3365
aI3181
aI6616
aF154.56
aF-212.52000000000001
aF236.44
aa(lp60
g3
ag4
aI0
aF7.0006449222564697
aF-0.34000000000000002
aF0.82999999999999996
aF-0.33000000000000002
aI938
aI-1167
aI-360
aF97.519999999999996
aF-215.28
aF214.36000000000001
aa(lp61
g3
ag4
aI0
aF7.1477499008178711
aF-0.39000000000000001
aF0.87
aF-0.35999999999999999
aI6731
aI-5392
aI-9058
aF129.72
aF-209.75999999999999
aF240.12
aa(lp62
g3
ag4
aI0
aF7.2469868659973145
aF-0.51000000000000001
aF0.83999999999999997
aF-0.39000000000000001
aI9648
aI-5962
aI-17087
aF261.27999999999997
aF-168.36000000000001
aF292.56
aa(lp63
g3
ag4
aI0
aF7.3619248867034912
aF-0.67000000000000004
aF0.70999999999999996
aF-0.37
aI8545
aI-8467
aI-22161
aF421.36000000000001
aF-45.079999999999998
aF321.07999999999998
aa(lp64
g3
ag4
aI0
aF7.5058219432830811
aF-0.69999999999999996
aF0.34000000000000002
aF-0.28000000000000003
aI2916
aI-10304
aI-24928
aF554.75999999999999
aF149.03999999999999
aF273.24000000000001
aa(lp65
g3
ag4
aI0
aF7.6475989818572998
aF-0.63
aF-0.029999999999999999
aF-0.17999999999999999
aI-1557
aI-6475
aI-21028
aF573.15999999999997
aF343.16000000000003
aF207
aa(lp66
g3
ag4
aI0
aF7.7596240043640137
aF-0.47999999999999998
aF-0.33000000000000002
aF-0.10000000000000001
aI-2864
aI-4943
aI-11567
aF529
aF461.83999999999997
aF177.56
aa(lp67
g3
ag4
aI0
aF7.8858070373535156
aF-0.33000000000000002
aF-0.56000000000000005
aF-0.089999999999999997
aI864
aI1866
aI1320
aF513.36000000000001
aF484.83999999999997
aF171.12
aa(lp68
g3
ag4
aI0
aF8.0467638969421387
aF-0.35999999999999999
aF-0.59999999999999998
aF-0.059999999999999998
aI1351
aI4896
aI13466
aF524.39999999999998
aF463.68000000000001
aF177.56
aa(lp69
g3
ag4
aI0
aF8.1469199657440186
aF-0.56999999999999995
aF-0.5
aF-0.089999999999999997
aI527
aI5734
aI17469
aF568.55999999999995
aF351.44
aF206.08000000000001
aa(lp70
g3
ag4
aI0
aF8.2717368602752686
aF-0.75
aF-0.31
aF-0.11
aI-2332
aI4670
aI16549
aF565.79999999999995
aF198.72
aF259.44
aa(lp71
g3
ag4
aI0
aF8.3617758750915527
aF-0.83999999999999997
aF-0.070000000000000007
aF-0.20999999999999999
aI-3362
aI2685
aI15112
aF526.24000000000001
aF52.439999999999998
aF286.12
aa(lp72
g3
ag4
aI0
aF8.5006899833679199
aF-0.75
aF0.17999999999999999
aF-0.26000000000000001
aI-4395
aI7075
aI13770
aF442.51999999999998
aF-61.640000000000001
aF305.44
aa(lp73
g3
ag4
aI0
aF8.6475780010223389
aF-0.73999999999999999
aF0.40999999999999998
aF-0.31
aI-4234
aI3251
aI11391
aF342.24000000000001
aF-140.75999999999999
aF294.39999999999998
aa(lp74
g3
ag4
aI0
aF8.7621839046478271
aF-0.58999999999999997
aF0.60999999999999999
aF-0.33000000000000002
aI-5130
aI6255
aI10076
aF226.31999999999999
aF-190.44
aF274.16000000000003
aa(lp75
g3
ag4
aI0
aF8.8780899047851562
aF-0.44
aF0.73999999999999999
aF-0.33000000000000002
aI-4021
aI3689
aI7404
aF172.96000000000001
aF-202.40000000000001
aF258.51999999999998
aa(lp76
g3
ag4
aI0
aF9.0473990440368652
aF-0.38
aF0.83999999999999997
aF-0.35999999999999999
aI1016
aI-2980
aI134
aF106.72
aF-210.68000000000001
aF231.84
aa(lp77
g3
ag4
aI0
aF9.1475648880004883
aF-0.40999999999999998
aF0.85999999999999999
aF-0.37
aI6009
aI-3699
aI-8803
aF137.08000000000001
aF-201.47999999999999
aF249.31999999999999
aa(lp78
g3
ag4
aI0
aF9.24668288230896
aF-0.54000000000000004
aF0.82999999999999996
aF-0.40000000000000002
aI9252
aI-7703
aI-17204
aF250.24000000000001
aF-166.52000000000001
aF294.39999999999998
aa(lp79
g3
ag4
aI0
aF9.3908259868621826
aF-0.71999999999999997
aF0.64000000000000001
aF-0.34999999999999998
aI7146
aI-11834
aI-23580
aF436.07999999999998
aF-49.68
aF314.63999999999999
aa(lp80
g3
ag4
aI0
aF9.5475728511810303
aF-0.71999999999999997
aF0.31
aF-0.20000000000000001
aI736
aI-9202
aI-22901
aF566.72000000000003
aF149.03999999999999
aF258.51999999999998
aa(lp81
g3
ag4
aI0
aF9.6476888656616211
aF-0.68999999999999995
aF-0.01
aF-0.11
aI-2299
aI-7003
aI-17515
aF593.39999999999998
aF322
aF195.96000000000001
aa(lp82
g3
ag4
aI0
aF9.7480559349060059
aF-0.56000000000000005
aF-0.32000000000000001
aF-0.050000000000000003
aI-2582
aI-2616
aI-11269
aF557.51999999999998
aF437
aF166.52000000000001
aa(lp83
g3
ag4
aI0
aF9.8857049942016602
aF-0.39000000000000001
aF-0.52000000000000002
aF-0.059999999999999998
aI-123
aI317
aI-800
aF526.24000000000001
aF480.24000000000001
aF157.31999999999999
aa(lp84
g3
ag4
aI0
aF10.047135829925537
aF-0.35999999999999999
aF-0.58999999999999997
aF-0.040000000000000001
aI2217
aI2529
aI11905
aF536.36000000000001
aF466.44
aF161
aa(lp85
g3
ag4
aI0
aF10.147130012512207
aF-0.5
aF-0.53000000000000003
aF0.02
aI2214
aI8261
aI16502
aF578.67999999999995
aF368
aF180.31999999999999
aa(lp86
g3
ag4
aI0
aF10.273152828216553
aF-0.64000000000000001
aF-0.39000000000000001
aF-0.10000000000000001
aI-2846
aI15623
aI17321
aF579.60000000000002
aF225.40000000000001
aF240.12
aa(lp87
g3
ag4
aI0
aF10.398533821105957
aF-0.70999999999999996
aF-0.080000000000000002
aF-0.26000000000000001
aI-7337
aI9556
aI15070
aF474.72000000000003
aF68.079999999999998
aF327.51999999999998
aa(lp88
g3
ag4
aI0
aF10.546993970870972
aF-0.68999999999999995
aF0.19
aF-0.35999999999999999
aI-6815
aI3689
aI13772
aF378.12
aF-62.560000000000002
aF333.95999999999998
aa(lp89
g3
ag4
aI0
aF10.647562026977539
aF-0.64000000000000001
aF0.45000000000000001
aF-0.40999999999999998
aI-5543
aI-19
aI11216
aF292.56
aF-146.28
aF308.19999999999999
aa(lp90
g3
ag4
aI0
aF10.759690046310425
aF-0.52000000000000002
aF0.63
aF-0.40999999999999998
aI-4770
aI1030
aI10384
aF211.59999999999999
aF-185.84
aF275.07999999999998
aa(lp91
g3
ag4
aI0
aF10.880624055862427
aF-0.40999999999999998
aF0.76000000000000001
aF-0.37
aI-2837
aI-358
aI7490
aF138.91999999999999
aF-202.40000000000001
aF250.24000000000001
aa(lp92
g3
ag4
aI0
aF11.046679973602295
aF-0.39000000000000001
aF0.80000000000000004
aF-0.37
aI1445
aI-2901
aI-86
aF120.52
aF-202.40000000000001
aF246.56
aa(lp93
g3
ag4
aI0
aF11.146726846694946
aF-0.45000000000000001
aF0.82999999999999996
aF-0.38
aI6274
aI-4442
aI-10847
aF154.56
aF-191.36000000000001
aF266.80000000000001
aa(lp94
g3
ag4
aI0
aF11.266901969909668
aF-0.58999999999999997
aF0.79000000000000004
aF-0.40000000000000002
aI8422
aI-8197
aI-18877
aF279.68000000000001
aF-148.12
aF306.36000000000001
aa(lp95
g3
ag4
aI0
aF11.393359899520874
aF-0.72999999999999998
aF0.58999999999999997
aF-0.34000000000000002
aI4662
aI-9199
aI-24641
aF456.31999999999999
aF-23.920000000000002
aF310.95999999999998
aa(lp96
g3
ag4
aI0
aF11.547564029693604
aF-0.76000000000000001
aF0.28000000000000003
aF-0.20999999999999999
aI-459
aI-8981
aI-23858
aF576.84000000000003
aF170.19999999999999
aF251.16
aa(lp97
g3
ag4
aI0
aF11.647593975067139
aF-0.64000000000000001
aF-0.059999999999999998
aF-0.11
aI-3942
aI-6324
aI-18972
aF582.36000000000001
aF357.88
aF189.52000000000001
aa(lp98
g3
ag4
aI0
aF11.779531955718994
aF-0.5
aF-0.35999999999999999
aF-0.059999999999999998
aI-3769
aI-5967
aI-10396
aF537.27999999999997
aF469.19999999999999
aF156.40000000000001
aa(lp99
g3
ag4
aI0
aF11.946979999542236
aF-0.34000000000000002
aF-0.58999999999999997
aF-0.070000000000000007
aI474
aI4015
aI1663
aF510.60000000000002
aF498.63999999999999
aF159.16
aa(lp100
g3
ag4
aI0
aF12.047122001647949
aF-0.37
aF-0.63
aF-0.029999999999999999
aI2945
aI1964
aI12600
aF539.12
aF447.12
aF175.72
aa(lp101
g3
ag4
aI0
aF12.15563702583313
aF-0.55000000000000004
aF-0.56000000000000005
aF-0.02
aI3764
aI6081
aI16240
aF585.12
aF333.04000000000002
aF195.03999999999999
aa(lp102
g3
ag4
aI0
aF12.271843910217285
aF-0.68999999999999995
aF-0.40999999999999998
aF-0.050000000000000003
aI-586
aI11376
aI15590
aF590.63999999999999
aF264.04000000000002
aF217.12
aa(lp103
g3
ag4
aI0
aF12.395824909210205
aF-0.81999999999999995
aF-0.19
aF-0.11
aI-3709
aI2360
aI13845
aF554.75999999999999
aF130.63999999999999
aF274.16000000000003
aa(lp104
g3
ag4
aI0
aF12.547677993774414
aF-0.75
aF0.050000000000000003
aF-0.20999999999999999
aI-3932
aI3425
aI12805
aF494.95999999999998
aF9.1999999999999993
aF300.83999999999997
aa(lp105
g3
ag4
aI0
aF12.647613048553467
aF-0.77000000000000002
aF0.28999999999999998
aF-0.31
aI-4236
aI5272
aI11531
aF409.39999999999998
aF-85.560000000000002
aF305.44
aa(lp106
g3
ag4
aI0
aF12.764758825302124
aF-0.63
aF0.46999999999999997
aF-0.34999999999999998
aI-4769
aI5276
aI10320
aF303.60000000000002
aF-150.88
aF299
aa(lp107
g3
ag4
aI0
aF12.908566951751709
aF-0.51000000000000001
aF0.65000000000000002
aF-0.33000000000000002
aI-4312
aI1170
aI9285
aF209.75999999999999
aF-190.44
aF274.16000000000003
aa(lp108
g3
ag4
aI0
aF13.047322988510132
aF-0.40999999999999998
aF0.76000000000000001
aF-0.34000000000000002
aI-2145
aI435
aI5163
aF146.28
aF-205.16
aF251.16
aa(lp109
g3
ag4
aI0
aF13.161913871765137
aF-0.44
aF0.80000000000000004
aF-0.37
aI3147
aI-2786
aI-4384
aF140.75999999999999
aF-198.72
aF262.19999999999999
aa(lp110
g3
ag4
aI0
aF13.28718090057373
aF-0.52000000000000002
aF0.80000000000000004
aF-0.38
aI7369
aI-7518
aI-14296
aF203.31999999999999
aF-188.59999999999999
aF275.07999999999998
aa(lp111
g3
ag4
aI0
aF13.446847915649414
aF-0.69999999999999996
aF0.68999999999999995
aF-0.35999999999999999
aI6452
aI-10298
aI-23129
aF371.68000000000001
aF-113.16
aF305.44
aa(lp112
g3
ag4
aI0
aF13.547655820846558
aF-0.81000000000000005
aF0.42999999999999999
aF-0.23000000000000001
aI1403
aI-8793
aI-25866
aF545.55999999999995
aF56.119999999999997
aF267.72000000000003
aa(lp113
g3
ag4
aI0
aF13.653295040130615
aF-0.75
aF0.089999999999999997
aF-0.11
aI-4392
aI-6601
aI-23280
aF598.91999999999996
aF267.72000000000003
aF204.24000000000001
aa(lp114
g3
ag4
aI0
aF13.800925016403198
aF-0.54000000000000004
aF-0.23000000000000001
aF-0.059999999999999998
aI-5403
aI-3031
aI-16291
aF561.20000000000005
aF434.24000000000001
aF169.28
aa(lp115
g3
ag4
aI0
aF13.946708917617798
aF-0.31
aF-0.48999999999999999
aF-0.070000000000000007
aI-1121
aI-566
aI-3401
aF503.24000000000001
aF7545.8400000000001
aF1.8400000000000001
aa(lp116
g3
ag4
aI0
aF14.047555923461914
aF-0.28999999999999998
aF-0.60999999999999999
aF-0.050000000000000003
aI3578
aI3916
aI11944
aF520.72000000000003
aF483
aF170.19999999999999
aa(lp117
g3
ag4
aI0
aF14.169358015060425
aF-0.45000000000000001
aF-0.56000000000000005
aF-0.029999999999999999
aI2369
aI7353
aI18286
aF570.39999999999998
aF368.92000000000002
aF196.88
aa(lp118
g3
ag4
aI0
aF14.34672999382019
aF-0.66000000000000003
aF-0.41999999999999998
aF-0.070000000000000007
aI-412
aI6209
aI17794
aF575.91999999999996
aF214.36000000000001
aF245.63999999999999
aa(lp119
g3
ag4
aI0
aF14.447533845901489
aF-0.68999999999999995
aF-0.20000000000000001
aF-0.11
aI-4634
aI5422
aI16990
aF554.75999999999999
aF137.08000000000001
aF272.31999999999999
aa(lp120
g3
ag4
aI0
aF14.547664880752563
aF-0.77000000000000002
aF0.11
aF-0.26000000000000001
aI-4288
aI4517
aI15127
aF481.16000000000003
aF-10.119999999999999
aF302.68000000000001
aa(lp121
g3
ag4
aI0
aF14.674624919891357
aF-0.70999999999999996
aF0.34999999999999998
aF-0.32000000000000001
aI-4566
aI3457
aI13014
aF385.48000000000002
aF-115.92
aF299.92000000000002
aa(lp122
g3
ag4
aI0
aF14.847434997558594
aF-0.59999999999999998
aF0.52000000000000002
aF-0.29999999999999999
aI-3583
aI2298
aI11188
aF290.72000000000003
aF-174.80000000000001
aF284.27999999999997
aa(lp123
g3
ag4
aI0
aF14.947222948074341
aF-0.48999999999999999
aF0.70999999999999996
aF-0.29999999999999999
aI-3142
aI3093
aI7821
aF199.63999999999999
aF-204.24000000000001
aF261.27999999999997
aa(lp124
g3
ag4
aI0
aF15.05458402633667
aF-0.38
aF0.79000000000000004
aF-0.29999999999999999
aI-1025
aI308
aI3644
aF139.84
aF-207
aF245.63999999999999
aa(lp125
g3
ag4
aI0
aF15.179647922515869
aF-0.38
aF0.84999999999999998
aF-0.33000000000000002
aI2830
aI-2015
aI-4752
aF147.19999999999999
aF-206.08000000000001
aF250.24000000000001
aa(lp126
g3
ag4
aI0
aF15.347429990768433
aF-0.47999999999999998
aF0.84999999999999998
aF-0.34999999999999998
aI6867
aI-5274
aI-14441
aF252.08000000000001
aF-182.16
aF284.27999999999997
aa(lp127
g3
ag4
aI0
aF15.446583032608032
aF-0.62
aF0.75
aF-0.34999999999999998
aI7568
aI-8124
aI-20434
aF330.27999999999997
aF-145.36000000000001
aF300.83999999999997
aa(lp128
g3
ag4
aI0
aF15.557458877563477
aF-0.77000000000000002
aF0.48999999999999999
aF-0.23999999999999999
aI2994
aI-12929
aI-24041
aF496.80000000000001
aF-1.8400000000000001
aF294.39999999999998
aa(lp129
g3
ag4
aI0
aF15.677080869674683
aF-0.79000000000000004
aF0.089999999999999997
aF-0.089999999999999997
aI-3823
aI-11504
aI-24770
aF296.24000000000001
aF2387.4000000000001
aF-14602.24
aa(lp130
g3
ag4
aI0
aF15.847519874572754
aF-0.56000000000000005
aF-0.20000000000000001
aF-0
aI-6808
aI-3065
aI-17467
aF591.55999999999995
aF411.24000000000001
aF123.28
aa(lp131
g3
ag4
aI0
aF15.95240592956543
aF-0.35999999999999999
aF-0.46000000000000002
aF0.01
aI-1071
aI-442
aI-2143
aF525.32000000000005
aF508.75999999999999
aF126.95999999999999
aa(lp132
g3
ag4
aI0
aF16.046946048736572
aF-0.31
aF-0.62
aF0.02
aI3118
aI5803
aI11891
aF533.60000000000002
aF486.68000000000001
aF138
aa(lp133
g3
ag4
aI0
aF16.188616037368774
aF-0.48999999999999999
aF-0.56000000000000005
aF0.02
aI2359
aI7572
aI16705
aF580.51999999999998
aF381.80000000000001
aF174.80000000000001
aa(lp134
g3
ag4
aI0
aF16.346463918685913
aF-0.66000000000000003
aF-0.40999999999999998
aF-0.02
aI-658
aI7122
aI16256
aF585.12
aF236.44
aF231.84
aa(lp135
g3
ag4
aI0
aF16.446329832077026
aF-0.72999999999999998
aF-0.20999999999999999
aF-0.10000000000000001
aI-3198
aI8461
aI15233
aF542.79999999999995
aF96.599999999999994
aF284.27999999999997
aa(lp136
g3
ag4
aI0
aF16.546664953231812
aF-0.78000000000000003
aF0.050000000000000003
aF-0.20999999999999999
aI-3929
aI4435
aI12993
aF470.12
aF-25.760000000000002
aF306.36000000000001
aa(lp137
g3
ag4
aI0
aF16.678040981292725
aF-0.76000000000000001
aF0.28000000000000003
aF-0.28999999999999998
aI-3756
aI3268
aI11753
aF426.88
aF-71.760000000000005
aF307.27999999999997
aa(lp138
g3
ag4
aI0
aF16.847187042236328
aF-0.66000000000000003
aF0.46999999999999997
aF-0.33000000000000002
aI-4220
aI5247
aI10180
aF333.95999999999998
aF-141.68000000000001
aF302.68000000000001
aa(lp139
g3
ag4
aI0
aF16.946665048599243
aF-0.55000000000000004
aF0.64000000000000001
aF-0.34000000000000002
aI-3691
aI2848
aI8429
aF449.88
aF0.92000000000000004
aF2508.8400000000001
aa(lp140
g3
ag4
aI0
aF17.068366050720215
aF-0.45000000000000001
aF0.76000000000000001
aF-0.34000000000000002
aI-2157
aI1075
aI5919
aF170.19999999999999
aF-203.31999999999999
aF258.51999999999998
aa(lp141
g3
ag4
aI0
aF17.183274984359741
aF-0.44
aF0.83999999999999997
aF-0.35999999999999999
aI2383
aI-817
aI-3934
aF144.44
aF-204.24000000000001
aF252.08000000000001
aa(lp142
g3
ag4
aI0
aF17.346757888793945
aF-0.51000000000000001
aF0.81999999999999995
aF-0.37
aI7030
aI-6548
aI-12407
aF228.16
aF-183.08000000000001
aF284.27999999999997
aa(lp143
g3
ag4
aI0
aF17.447389841079712
aF-0.64000000000000001
aF0.73999999999999999
aF-0.38
aI7404
aI-8445
aI-19069
aF391
aF-97.519999999999996
aF308.19999999999999
aa(lp144
g3
ag4
aI0
aF17.578016996383667
aF-0.75
aF0.5
aF-0.28000000000000003
aI4122
aI-10393
aI-21848
aF538.20000000000005
aF60.719999999999999
aF279.68000000000001
aa(lp145
g3
ag4
aI0
aF17.747498035430908
aF-0.79000000000000004
aF0.17000000000000001
aF-0.11
aI-2645
aI-11173
aI-22209
aF590.63999999999999
aF154.56
aF232.75999999999999
aa(lp146
g3
ag4
aI0
aF17.847220897674561
aF-0.62
aF-0.14999999999999999
aF-0.01
aI-4519
aI-5104
aI-18738
aF613.63999999999999
aF338.56
aF149.96000000000001
aa(lp147
g3
ag4
aI0
aF17.946987867355347
aF-0.41999999999999998
aF-0.41999999999999998
aF0.02
aI-3578
aI-4217
aI-9247
aF550.15999999999997
aF477.48000000000002
aF122.36
aa(lp148
g3
ag4
aI0
aF18.080844879150391
aF-0.28000000000000003
aF-0.58999999999999997
aF0.02
aI1978
aI3256
aI5775
aF519.79999999999995
aF519.79999999999995
aF114.08
aa(lp149
g3
ag4
aI0
aF18.246892929077148
aF-0.38
aF-0.63
aF0.089999999999999997
aI3552
aI8040
aI16044
aF563.96000000000004
aF449.88
aF138
aa(lp150
g3
ag4
aI0
aF18.34716796875
aF-0.60999999999999999
aF-0.51000000000000001
aF0.070000000000000007
aI598
aI8459
aI16281
aF592.48000000000002
aF311.88
aF195.96000000000001
aa(lp151
g3
ag4
aI0
aF18.446231842041016
aF-0.72999999999999998
aF-0.32000000000000001
aF-0.050000000000000003
aI-1389
aI7851
aI14909
aF575.91999999999996
aF167.44
aF253.91999999999999
aa(lp152
g3
ag4
aI0
aF18.587076902389526
aF-0.80000000000000004
aF-0.089999999999999997
aF-0.12
aI-3279
aI5061
aI13684
aF513.36000000000001
aF40.479999999999997
aF297.16000000000003
aa(lp153
g3
ag4
aI0
aF18.746335029602051
aF-0.81000000000000005
aF0.13
aF-0.23000000000000001
aI-3445
aI6576
aI11531
aF474.72000000000003
aF-11.039999999999999
aF303.60000000000002
aa(lp154
g3
ag4
aI0
aF18.846286058425903
aF-0.77000000000000002
aF0.34000000000000002
aF-0.33000000000000002
aI-3458
aI3355
aI9000
aF390.07999999999998
aF-92
aF314.63999999999999
aa(lp155
g3
ag4
aI0
aF18.946444034576416
aF-0.66000000000000003
aF0.51000000000000001
aF-0.37
aI-2918
aI1981
aI8079
aF309.12
aF-140.75999999999999
aF307.27999999999997
aa(lp156
g3
ag4
aI0
aF19.06963586807251
aF-0.53000000000000003
aF0.63
aF-0.38
aI-3758
aI3017
aI7042
aF238.28
aF-171.12
aF291.63999999999999
aa(lp157
g3
ag4
aI0
aF19.194494962692261
aF-0.45000000000000001
aF0.73999999999999999
aF-0.37
aI-1981
aI977
aI4166
aF176.63999999999999
aF-193.19999999999999
aF272.31999999999999
aa(lp158
g3
ag4
aI0
aF19.346536874771118
aF-0.45000000000000001
aF0.81000000000000005
aF-0.41999999999999998
aI3843
aI-2854
aI-5078
aF173.88
aF-192.28
aF270.48000000000002
aa(lp159
g3
ag4
aI0
aF19.446005821228027
aF-0.58999999999999997
aF0.80000000000000004
aF-0.40999999999999998
aI9825
aI-10807
aI-16245
aF289.80000000000001
aF-138
aF310.95999999999998
aa(lp160
g3
ag4
aI0
aF19.578380823135376
aF-0.75
aF0.55000000000000004
aF-0.32000000000000001
aI6284
aI-16066
aI-25466
aF509.68000000000001
aF16.559999999999999
aF291.63999999999999
aa(lp161
g3
ag4
aI0
aF19.747205018997192
aF-0.81000000000000005
aF0.28000000000000003
aF-0.19
aI-2233
aI-10052
aI-25007
aF611.79999999999995
aF236.44
aF199.63999999999999
aa(lp162
g3
ag4
aI0
aF19.847188949584961
aF-0.68999999999999995
aF-0.050000000000000003
aF-0.050000000000000003
aI-5845
aI-7190
aI-19816
aF604.44000000000005
aF332.12
aF167.44
aa(lp163
g3
ag4
aI0
aF19.948333978652954
aF-0.45000000000000001
aF-0.35999999999999999
aF-0.02
aI-3620
aI-1303
aI-11157
aF552.91999999999996
aF469.19999999999999
aF130.63999999999999
aa(lp164
g3
ag4
aI0
aF20.074503898620605
aF-0.31
aF-0.57999999999999996
aF-0.01
aI846
aI1178
aI1971
aF501.39999999999998
aF525.32000000000005
aF137.08000000000001
aa(lp165
g3
ag4
aI0
aF20.246574878692627
aF-0.35999999999999999
aF-0.66000000000000003
aF0.050000000000000003
aI2690
aI3490
aI11437
aF528.08000000000004
aF495.88
aF142.59999999999999
aa(lp166
g3
ag4
aI0
aF20.346181869506836
aF-0.46000000000000002
aF-0.62
aF0.059999999999999998
aI2196
aI5429
aI14489
aF578.67999999999995
aF401.12
aF161.91999999999999
aa(lp167
g3
ag4
aI0
aF20.447340965270996
aF-0.63
aF-0.46999999999999997
aF0
aI477
aI7193
aI14876
aF600.75999999999999
aF274.16000000000003
aF202.40000000000001
aa(lp168
g3
ag4
aI0
aF20.563321828842163
aF-0.76000000000000001
aF-0.25
aF-0.10000000000000001
aI-2792
aI5803
aI15109
aF575.91999999999996
aF136.16
aF253
aa(lp169
g3
ag4
aI0
aF20.684674978256226
aF-0.75
aF-0.01
aF-0.14999999999999999
aI-2758
aI5965
aI14121
aF503.24000000000001
aF7.3600000000000003
aF292.56
aa(lp170
g3
ag4
aI0
aF20.847353935241699
aF-0.76000000000000001
aF0.22
aF-0.28000000000000003
aI-3842
aI7843
aI12642
aF455.39999999999998
aF-43.240000000000002
aF305.44
aa(lp171
g3
ag4
aI0
aF20.946569919586182
aF-0.66000000000000003
aF0.45000000000000001
aF-0.31
aI-4493
aI2951
aI10912
aF338.56
aF-125.12
aF311.88
aa(lp172
g3
ag4
aI0
aF21.083437919616699
aF-0.57999999999999996
aF0.59999999999999998
aF-0.33000000000000002
aI-3860
aI2114
aI8076
aF-5407.7600000000002
aF296.24000000000001
aF-20961.279999999999
aa(lp173
g3
ag4
aI0
aF21.246176958084106
aF-0.45000000000000001
aF0.68999999999999995
aF-0.33000000000000002
aI-3032
aI3492
aI5183
aF184.91999999999999
aF-191.36000000000001
aF271.39999999999998
aa(lp174
g3
ag4
aI0
aF21.347152948379517
aF-0.32000000000000001
aF0.78000000000000003
aF-0.32000000000000001
aI-2271
aI1823
aI4300
aF126.04000000000001
aF-201.47999999999999
aF249.31999999999999
aa(lp175
g3
ag4
aI0
aF21.447305917739868
aF-0.23000000000000001
aF0.82999999999999996
aF-0.28999999999999998
aI-1415
aI-210
aI1850
aF92.920000000000002
aF-202.40000000000001
aF234.59999999999999
aa(lp176
g3
ag4
aI0
aF21.578413963317871
aF-0.17000000000000001
aF0.85999999999999999
aF-0.26000000000000001
aI-331
aI-220
aI517
aF85.560000000000002
aF-204.24000000000001
aF227.24000000000001
aa(lp177
g3
ag4
aI0
aF21.746433019638062
aF-0.13
aF0.88
aF-0.23999999999999999
aI136
aI-1811
aI-106
aF92.920000000000002
aF-202.40000000000001
aF230
aa(lp178
g3
ag4
aI0
aF21.847182989120483
aF-0.12
aF0.88
aF-0.22
aI149
aI-1602
aI-172
aF95.680000000000007
aF-204.24000000000001
aF235.52000000000001
aa(lp179
g3
ag4
aI0
aF21.946823835372925
aF-0.12
aF0.88
aF-0.22
aI-189
aI-15
aI-33
aF108.56
aF-202.40000000000001
aF235.52000000000001
aa(lp180
g3
ag4
aI0
aF22.059634923934937
aF-0.11
aF0.89000000000000001
aF-0.22
aI-302
aI1141
aI63
aF105.8
aF-205.16
aF232.75999999999999
aa(lp181
g3
ag4
aI0
aF22.173231840133667
aF-0.10000000000000001
aF0.88
aF-0.22
aI-88
aI266
aI162
aF99.359999999999999
aF-205.16
aF230
aa(lp182
g3
ag4
aI0
aF22.346173048019409
aF-0.11
aF0.88
aF-0.22
aI179
aI-69
aI-50
aF103.95999999999999
aF-205.16
aF229.08000000000001
aa(lp183
g3
ag4
aI0
aF22.447316884994507
aF-0.11
aF0.88
aF-0.22
aI179
aI259
aI-209
aF103.04000000000001
aF-205.16
aF229.08000000000001
aa(lp184
g3
ag4
aI0
aF22.559624910354614
aF-0.10000000000000001
aF0.89000000000000001
aF-0.22
aI198
aI147
aI-214
aF102.12
aF-206.08000000000001
aF232.75999999999999
aa(lp185
g3
ag4
aI0
aF22.672101020812988
aF-0.11
aF0.89000000000000001
aF-0.20999999999999999
aI242
aI80
aI-197
aF102.12
aF-200.56
aF232.75999999999999
aa(lp186
g3
ag4
aI0
aF22.846398830413818
aF-0.11
aF0.88
aF-0.20999999999999999
aI99
aI56
aI-163
aF105.8
aF-202.40000000000001
aF232.75999999999999
aa(lp187
g3
ag4
aI0
aF22.947252988815308
aF-0.11
aF0.88
aF-0.20999999999999999
aI0
aI365
aI-48
aF105.8
aF-205.16
aF233.68000000000001
aa(lp188
g3
ag4
aI0
aF23.046669006347656
aF-0.11
aF0.89000000000000001
aF-0.20999999999999999
aI72
aI78
aI81
aF103.04000000000001
aF-203.31999999999999
aF230.91999999999999
aa(lp189
g3
ag4
aI0
aF23.157099008560181
aF-0.10000000000000001
aF0.88
aF-0.22
aI64
aI326
aI43
aF101.2
aF-207
aF231.84
aa(lp190
g3
ag4
aI0
aF23.269523859024048
aF-0.10000000000000001
aF0.88
aF-0.22
aI150
aI-8
aI-35
aF101.2
aF-207.91999999999999
aF232.75999999999999
aa(lp191
g3
ag4
aI0
aF23.446846961975098
aF-0.11
aF0.88
aF-0.22
aI204
aI55
aI34
aF103.04000000000001
aF-206.08000000000001
aF230.91999999999999
aa(lp192
g3
ag4
aI0
aF23.545850992202759
aF-0.10000000000000001
aF0.88
aF-0.22
aI189
aI121
aI-38
aF105.8
aF-207
aF230.91999999999999
aa(lp193
g3
ag4
aI0
aF23.645907878875732
aF-0.10000000000000001
aF0.88
aF-0.22
aI170
aI-73
aI42
aF103.04000000000001
aF-202.40000000000001
aF230.91999999999999
aa(lp194
g3
ag4
aI0
aF23.846256971359253
aF-0.11
aF0.88
aF-0.22
aI139
aI73
aI-95
aF103.04000000000001
aF-206.08000000000001
aF231.84
aa(lp195
g3
ag4
aI0
aF24.047281980514526
aF-0.11
aF0.88
aF-0.22
aI179
aI-60
aI-59
aF103.95999999999999
aF-205.16
aF230
aa(lp196
g3
ag4
aI0
aF24.147296905517578
aF-0.11
aF0.88
aF-0.22
aI152
aI-59
aI-95
aF107.64
aF-205.16
aF232.75999999999999
aa(lp197
g3
ag4
aI0
aF24.246593952178955
aF-0.11
aF0.88
aF-0.20999999999999999
aI87
aI189
aI-100
aF106.72
aF-204.24000000000001
aF230.91999999999999
aa(lp198
g3
ag4
aI0
aF24.347295999526978
aF-0.11
aF0.88
aF-0.20999999999999999
aI134
aI69
aI-90
aF108.56
aF-203.31999999999999
aF232.75999999999999
aa(lp199
g3
ag4
aI0
aF24.446347951889038
aF-0.11
aF0.89000000000000001
aF-0.20999999999999999
aI138
aI131
aI-1
aF107.64
aF-208.84
aF232.75999999999999
aa(lp200
g3
ag4
aI0
aF24.547302007675171
aF-0.11
aF0.88
aF-0.22
aI160
aI107
aI22
aF105.8
aF-207
aF230.91999999999999
aa(lp201
g3
ag4
aI0
aF24.647351980209351
aF-0.11
aF0.89000000000000001
aF-0.20999999999999999
aI196
aI67
aI-67
aF104.88
aF-207
aF231.84
aa(lp202
g3
ag4
aI0
aF24.746150970458984
aF-0.11
aF0.88
aF-0.20999999999999999
aI165
aI107
aI2
aF103.95999999999999
aF-206.08000000000001
aF230.91999999999999
aa(lp203
g3
ag4
aI0
aF24.847357034683228
aF-0.11
aF0.89000000000000001
aF-0.20999999999999999
aI107
aI89
aI-3
aF104.88
aF-207.91999999999999
aF232.75999999999999
aa(lp204
g3
ag4
aI0
aF24.946306943893433
aF-0.11
aF0.88
aF-0.20999999999999999
aI67
aI237
aI-3
aF105.8
aF-205.16
aF232.75999999999999
aa(lp205
g3
ag4
aI0
aF25.062183856964111
aF-0.11
aF0.89000000000000001
aF-0.20999999999999999
aI91
aI399
aI0
aF103.95999999999999
aF-203.31999999999999
aF230.91999999999999
aa.