(lp1
(lp2
S'Lazar'
p3
aS'bicep curls'
p4
aI0
aF1.1920928955078125e-06
aI0
aI0
aI0
aI0
aI0
aI0
aI0
aI0
aI0
aa(lp5
g3
ag4
aI0
aF0.17401218414306641
aF0.089999999999999997
aF0.92000000000000004
aF-0.16
aI-930
aI-2108
aI819
aF76.359999999999999
aF42.32
aF11.960000000000001
aa(lp6
g3
ag4
aI0
aF0.25417208671569824
aF0.089999999999999997
aF0.96999999999999997
aF-0.19
aI546
aI1262
aI42
aF69.920000000000002
aF42.32
aF6.4400000000000004
aa(lp7
g3
ag4
aI0
aF0.35391807556152344
aF0.070000000000000007
aF0.95999999999999996
aF-0.17999999999999999
aI174
aI2082
aI1081
aF58.880000000000003
aF48.759999999999998
aF2.7599999999999998
aa(lp8
g3
ag4
aI0
aF0.45393204689025879
aF0.080000000000000002
aF0.93000000000000005
aF-0.17999999999999999
aI312
aI386
aI90
aF50.600000000000001
aF49.68
aF-2.7599999999999998
aa(lp9
g3
ag4
aI0
aF0.56248307228088379
aF0.089999999999999997
aF0.93000000000000005
aF-0.19
aI183
aI9
aI-182
aF51.520000000000003
aF46.920000000000002
aF0
aa(lp10
g3
ag4
aI0
aF0.68093705177307129
aF0.10000000000000001
aF0.93000000000000005
aF-0.20000000000000001
aI865
aI1008
aI-469
aF57.039999999999999
aF47.840000000000003
aF6.4400000000000004
aa(lp11
g3
ag4
aI0
aF0.79119205474853516
aF0.080000000000000002
aF0.93000000000000005
aF-0.20000000000000001
aI602
aI16
aI-692
aF62.560000000000002
aF49.68
aF9.1999999999999993
aa(lp12
g3
ag4
aI0
aF0.95316314697265625
aF0.070000000000000007
aF0.92000000000000004
aF-0.20000000000000001
aI-52
aI-949
aI-42
aF65.319999999999993
aF46.920000000000002
aF9.1999999999999993
aa(lp13
g3
ag4
aI0
aF1.0541141033172607
aF0.050000000000000003
aF0.91000000000000003
aF-0.22
aI-609
aI-5796
aI-1055
aF80.959999999999994
aF40.479999999999997
aF11.039999999999999
aa(lp14
g3
ag4
aI0
aF1.1574501991271973
aF-0.059999999999999998
aF0.98999999999999999
aF-0.31
aI589
aI-10146
aI-4764
aF146.28
aF33.119999999999997
aF22.079999999999998
aa(lp15
g3
ag4
aI0
aF1.2787361145019531
aF-0.27000000000000002
aF0.96999999999999997
aF-0.19
aI235
aI-19903
aI-19859
aF339.48000000000002
aF35.880000000000003
aF25.760000000000002
aa(lp16
g3
ag4
aI0
aF1.4074451923370361
aF-0.63
aF0.87
aF0.070000000000000007
aI-13507
aI-17141
aI-27329
aF504.16000000000003
aF75.439999999999998
aF-38.640000000000001
aa(lp17
g3
ag4
aI0
aF1.5543191432952881
aF-0.68999999999999995
aF0.67000000000000004
aF0.26000000000000001
aI-18603
aI-935
aI-23164
aF703.79999999999995
aF258.51999999999998
aF-203.31999999999999
aa(lp18
g3
ag4
aI0
aF1.6544840335845947
aF-0.66000000000000003
aF0.26000000000000001
aF0.31
aI-19876
aI17
aI-18336
aF745.20000000000005
aF493.12
aF-254.84
aa(lp19
g3
ag4
aI0
aF1.7689111232757568
aF-0.47999999999999998
aF-0.14999999999999999
aF0.17999999999999999
aI-11355
aI-1495
aI-13723
aF699.20000000000005
aF671.60000000000002
aF-205.16
aa(lp20
g3
ag4
aI0
aF1.9126391410827637
aF-0.32000000000000001
aF-0.41999999999999998
aF0.050000000000000003
aI6566
aI5208
aI-1944
aF655.03999999999996
aF739.67999999999995
aF-167.44
aa(lp21
g3
ag4
aI0
aF2.0544440746307373
aF-0.33000000000000002
aF-0.63
aF0.059999999999999998
aI4321
aI1276
aI11989
aF645.84000000000003
aF752.55999999999995
aF-191.36000000000001
aa(lp22
g3
ag4
aI0
aF2.1543891429901123
aF-0.46000000000000002
aF-0.57999999999999996
aF0.10000000000000001
aI14239
aI8677
aI12203
aF707.48000000000002
aF629.27999999999997
aF-178.47999999999999
aa(lp23
g3
ag4
aI0
aF2.2936551570892334
aF-0.64000000000000001
aF-0.34999999999999998
aF0.070000000000000007
aI4705
aI18737
aI20797
aF695.51999999999998
aF465.51999999999998
aF-61.640000000000001
aa(lp24
g3
ag4
aI0
aF2.4537642002105713
aF-0.70999999999999996
aF-0.040000000000000001
aF-0.16
aI-2536
aI18657
aI22357
aF515.20000000000005
aF290.72000000000003
aF103.04000000000001
aa(lp25
g3
ag4
aI0
aF2.5540330410003662
aF-0.46999999999999997
aF0.23999999999999999
aF-0.28999999999999998
aI-11343
aI19813
aI20192
aF382.72000000000003
aF208.84
aF140.75999999999999
aa(lp26
g3
ag4
aI0
aF2.6534810066223145
aF-0.41999999999999998
aF0.64000000000000001
aF-0.45000000000000001
aI-12432
aI4704
aI15270
aF146.28
aF94.760000000000005
aF91.079999999999998
aa(lp27
g3
ag4
aI0
aF2.7687771320343018
aF-0.17000000000000001
aF0.85999999999999999
aF-0.46000000000000002
aI-8520
aI1906
aI9627
aF11.039999999999999
aF66.239999999999995
aF-6.4400000000000004
aa(lp28
g3
ag4
aI0
aF2.887592077255249
aF-0.080000000000000002
aF0.91000000000000003
aF-0.44
aI-1220
aI-4795
aI1882
aF-41.399999999999999
aF73.599999999999994
aF-48.759999999999998
aa(lp29
g3
ag4
aI0
aF3.0537941455841064
aF-0.10000000000000001
aF0.95999999999999996
aF-0.45000000000000001
aI4535
aI-8549
aI-7349
aF2.7599999999999998
aF67.159999999999997
aF-8.2799999999999994
aa(lp30
g3
ag4
aI0
aF3.1540241241455078
aF-0.20000000000000001
aF1.04
aF-0.46000000000000002
aI6029
aI-17939
aI-18560
aF180.31999999999999
aF59.799999999999997
aF65.319999999999993
aa(lp31
g3
ag4
aI0
aF3.2711350917816162
aF-0.46000000000000002
aF0.94999999999999996
aF-0.28999999999999998
aI-2234
aI-25015
aI-27280
aF332.12
aF77.280000000000001
aF69.920000000000002
aa(lp32
g3
ag4
aI0
aF3.3900852203369141
aF-0.67000000000000004
aF0.63
aF0
aI-12762
aI-12495
aI-25885
aF643.08000000000004
aF215.28
aF-85.560000000000002
aa(lp33
g3
ag4
aI0
aF3.5541450977325439
aF-0.64000000000000001
aF0.25
aF0.20000000000000001
aI-13154
aI-5486
aI-21789
aF741.51999999999998
aF448.04000000000002
aF-218.03999999999999
aa(lp34
g3
ag4
aI0
aF3.6745350360870361
aF-0.52000000000000002
aF-0.11
aF0.10000000000000001
aI-12488
aI1609
aI-12870
aF708.39999999999998
aF645.84000000000003
aF-224.47999999999999
aa(lp35
g3
ag4
aI0
aF3.8012890815734863
aF-0.32000000000000001
aF-0.42999999999999999
aF0.02
aI3303
aI4394
aI-10209
aF656.88
aF737.84000000000003
aF-168.36000000000001
aa(lp36
g3
ag4
aI0
aF3.9543871879577637
aF-0.33000000000000002
aF-0.68999999999999995
aF0.080000000000000002
aI7229
aI-4495
aI14181
aF628.36000000000001
aF778.32000000000005
aF-186.75999999999999
aa(lp37
g3
ag4
aI0
aF4.0543041229248047
aF-0.44
aF-0.65000000000000002
aF0.17000000000000001
aI13052
aI3966
aI8624
aF700.12
aF667.91999999999996
aF-211.59999999999999
aa(lp38
g3
ag4
aI0
aF4.1663501262664795
aF-0.63
aF-0.52000000000000002
aF0.14000000000000001
aI5261
aI13430
aI17010
aF724.03999999999996
aF535.44000000000005
aF-157.31999999999999
aa(lp39
g3
ag4
aI0
aF4.2825400829315186
aF-0.76000000000000001
aF-0.23999999999999999
aF0.11
aI2375
aI15534
aI18332
aF661.48000000000002
aF368
aF-21.16
aa(lp40
g3
ag4
aI0
aF4.4542760848999023
aF-0.80000000000000004
aF0.11
aF-0.19
aI-2765
aI19811
aI17395
aF584.20000000000005
aF299.92000000000002
aF49.68
aa(lp41
g3
ag4
aI0
aF4.5573341846466064
aF-0.62
aF0.29999999999999999
aF-0.33000000000000002
aI-10073
aI17986
aI15411
aF330.27999999999997
aF168.36000000000001
aF134.31999999999999
aa(lp42
g3
ag4
aI0
aF4.6837160587310791
aF-0.26000000000000001
aF0.77000000000000002
aF-0.41999999999999998
aI-12468
aI-1202
aI14460
aF122.36
aF86.480000000000004
aF77.280000000000001
aa(lp43
g3
ag4
aI0
aF4.8532350063323975
aF-0.20999999999999999
aF0.89000000000000001
aF-0.52000000000000002
aI-7270
aI2469
aI8927
aF18.399999999999999
aF62.560000000000002
aF-1.8400000000000001
aa(lp44
g3
ag4
aI0
aF4.9539620876312256
aF-0.12
aF0.94999999999999996
aF-0.51000000000000001
aI-72
aI-1902
aI-19
aF-28.52
aF69
aF-35.880000000000003
aa(lp45
g3
ag4
aI0
aF5.0535531044006348
aF-0.089999999999999997
aF0.98999999999999999
aF-0.51000000000000001
aI5442
aI-8439
aI-6654
aF21.16
aF64.400000000000006
aF-0.92000000000000004
aa(lp46
g3
ag4
aI0
aF5.1547501087188721
aF-0.26000000000000001
aF1.04
aF-0.51000000000000001
aI7294
aI-15821
aI-17431
aF210.68000000000001
aF70.840000000000003
aF76.359999999999999
aa(lp47
g3
ag4
aI0
aF5.2762560844421387
aF-0.45000000000000001
aF0.84999999999999998
aF-0.31
aI-2867
aI-27193
aI-26805
aF368
aF99.359999999999999
aF77.280000000000001
aa(lp48
g3
ag4
aI0
aF5.4011330604553223
aF-0.63
aF0.56000000000000005
aF-0.029999999999999999
aI-11914
aI-14053
aI-24341
aF668.84000000000003
aF248.40000000000001
aF-103.04000000000001
aa(lp49
g3
ag4
aI0
aF5.5540812015533447
aF-0.64000000000000001
aF0.17000000000000001
aF0.14000000000000001
aI-11994
aI-4542
aI-18789
aF740.60000000000002
aF460.92000000000002
aF-217.12
aa(lp50
g3
ag4
aI0
aF5.6824932098388672
aF-0.56999999999999995
aF-0.23999999999999999
aF0.11
aI-10611
aI-1782
aI-11875
aF713.91999999999996
aF637.55999999999995
aF-228.16
aa(lp51
g3
ag4
aI0
aF5.8541791439056396
aF-0.39000000000000001
aF-0.47999999999999998
aF0.080000000000000002
aI2863
aI2467
aI-11116
aF664.24000000000001
aF725.88
aF-187.68000000000001
aa(lp52
g3
ag4
aI0
aF5.9538850784301758
aF-0.39000000000000001
aF-0.67000000000000004
aF0.089999999999999997
aI6990
aI340
aI10423
aF643.08000000000004
aF758.08000000000004
aF-191.36000000000001
aa(lp53
g3
ag4
aI0
aF6.0540750026702881
aF-0.45000000000000001
aF-0.67000000000000004
aF0.17000000000000001
aI12092
aI7333
aI8543
aF693.67999999999995
aF677.12
aF-194.12
aa(lp54
g3
ag4
aI0
aF6.1725330352783203
aF-0.60999999999999999
aF-0.47999999999999998
aF0.16
aI5621
aI8450
aI18701
aF719.44000000000005
aF523.48000000000002
aF-135.24000000000001
aa(lp55
g3
ag4
aI0
aF6.2963600158691406
aF-0.77000000000000002
aF-0.27000000000000002
aF0.070000000000000007
aI3948
aI20893
aI18772
aF639.39999999999998
aF356.04000000000002
aF2.7599999999999998
aa(lp56
g3
ag4
aI0
aF6.4539110660552979
aF-0.71999999999999997
aF0
aF-0.16
aI-4241
aI22748
aI18344
aF543.72000000000003
aF278.75999999999999
aF81.879999999999995
aa(lp57
g3
ag4
aI0
aF6.5544180870056152
aF-0.60999999999999999
aF0.47999999999999998
aF-0.38
aI-10953
aI15820
aI13975
aF279.68000000000001
aF160.08000000000001
aF136.16
aa(lp58
g3
ag4
aI0
aF6.6638350486755371
aF-0.33000000000000002
aF0.68000000000000005
aF-0.42999999999999999
aI-12248
aI4577
aI11382
aF83.719999999999999
aF82.799999999999997
aF58.880000000000003
aa(lp59
g3
ag4
aI0
aF6.8013350963592529
aF-0.17999999999999999
aF0.87
aF-0.46000000000000002
aI-7230
aI-2002
aI6682
aF-8.2799999999999994
aF64.400000000000006
aF-23.920000000000002
aa(lp60
g3
ag4
aI0
aF6.9536271095275879
aF-0.14999999999999999
aF0.92000000000000004
aF-0.47999999999999998
aI217
aI-5244
aI-563
aF-26.68
aF66.239999999999995
aF-37.719999999999999
aa(lp61
g3
ag4
aI0
aF7.0536980628967285
aF-0.13
aF1.02
aF-0.52000000000000002
aI5766
aI-15182
aI-9393
aF58.880000000000003
aF60.719999999999999
aF22.079999999999998
aa(lp62
g3
ag4
aI0
aF7.1551320552825928
aF-0.33000000000000002
aF1.0600000000000001
aF-0.45000000000000001
aI6289
aI-17215
aI-21178
aF161
aF59.799999999999997
aF62.560000000000002
aa(lp63
g3
ag4
aI0
aF7.2689030170440674
aF-0.5
aF0.85999999999999999
aF-0.29999999999999999
aI-3173
aI-21125
aI-29360
aF459.07999999999998
aF136.16
aF61.640000000000001
aa(lp64
g3
ag4
aI0
aF7.411351203918457
aF-0.62
aF0.53000000000000003
aF-0.059999999999999998
aI-8975
aI-8531
aI-23795
aF684.48000000000002
aF322
aF-84.640000000000001
aa(lp65
g3
ag4
aI0
aF7.5542581081390381
aF-0.57999999999999996
aF0.089999999999999997
aF0.040000000000000001
aI-8918
aI-7311
aI-16423
aF727.72000000000003
aF522.55999999999995
aF-170.19999999999999
aa(lp66
g3
ag4
aI0
aF7.6602191925048828
aF-0.53000000000000003
aF-0.29999999999999999
aF0.089999999999999997
aI-1520
aI-2931
aI-10133
aF706.55999999999995
aF643.08000000000004
aF-192.28
aa(lp67
g3
ag4
aI0
aF7.8126060962677002
aF-0.46999999999999997
aF-0.53000000000000003
aF0.080000000000000002
aI-1532
aI3983
aI-3433
aF678.03999999999996
aF712.08000000000004
aF-187.68000000000001
aa(lp68
g3
ag4
aI0
aF7.9541170597076416
aF-0.38
aF-0.68000000000000005
aF0.080000000000000002
aI3826
aI2600
aI2188
aF650.44000000000005
aF737.84000000000003
aF-162.84
aa(lp69
g3
ag4
aI0
aF8.054185152053833
aF-0.42999999999999999
aF-0.64000000000000001
aF0.11
aI7146
aI6232
aI11918
aF689.08000000000004
aF658.72000000000003
aF-158.24000000000001
aa(lp70
g3
ag4
aI0
aF8.1576120853424072
aF-0.64000000000000001
aF-0.45000000000000001
aF0.11
aI3838
aI8252
aI17751
aF703.79999999999995
aF597.08000000000004
aF-131.56
aa(lp71
g3
ag4
aI0
aF8.2826402187347412
aF-0.79000000000000004
aF-0.20999999999999999
aF0.040000000000000001
aI710
aI14470
aI18148
aF686.32000000000005
aF439.75999999999999
aF-47.840000000000003
aa(lp72
g3
ag4
aI0
aF8.4530951976776123
aF-0.82999999999999996
aF0.11
aF-0.17999999999999999
aI-3524
aI21298
aI15881
aF537.27999999999997
aF283.36000000000001
aF87.400000000000006
aa(lp73
g3
ag4
aI0
aF8.553523063659668
aF-0.56000000000000005
aF0.31
aF-0.34999999999999998
aI-10167
aI16001
aI12868
aF289.80000000000001
aF168.36000000000001
aF142.59999999999999
aa(lp74
g3
ag4
aI0
aF8.6825611591339111
aF-0.31
aF0.58999999999999997
aF-0.5
aI-12179
aI8500
aI10735
aF99.359999999999999
aF85.560000000000002
aF72.680000000000007
aa(lp75
g3
ag4
aI0
aF8.8532941341400146
aF-0.16
aF0.80000000000000004
aF-0.53000000000000003
aI-10394
aI1797
aI7559
aF-12.880000000000001
aF62.560000000000002
aF-29.440000000000001
aa(lp76
g3
ag4
aI0
aF8.9539651870727539
aF-0.070000000000000007
aF0.89000000000000001
aF-0.54000000000000004
aI-1028
aI-5198
aI375
aF-43.240000000000002
aF64.400000000000006
aF-67.159999999999997
aa(lp77
g3
ag4
aI0
aF9.0543830394744873
aF-0.029999999999999999
aF0.96999999999999997
aF-0.54000000000000004
aI5432
aI-10734
aI-5535
aF-24.84
aF63.479999999999997
aF-46
aa(lp78
g3
ag4
aI0
aF9.17234206199646
aF-0.20000000000000001
aF1.01
aF-0.51000000000000001
aI7422
aI-20658
aI-16303
aF113.16
aF58.880000000000003
aF46
aa(lp79
g3
ag4
aI0
aF9.2924671173095703
aF-0.46000000000000002
aF0.84999999999999998
aF-0.33000000000000002
aI-318
aI-22358
aI-27338
aF409.39999999999998
aF111.31999999999999
aF69
aa(lp80
g3
ag4
aI0
aF9.454207181930542
aF-0.64000000000000001
aF0.56999999999999995
aF-0.040000000000000001
aI-7073
aI-8014
aI-25132
aF675.27999999999997
aF299
aF-78.200000000000003
aa(lp81
g3
ag4
aI0
aF9.5612912178039551
aF-0.65000000000000002
aF0.080000000000000002
aF0.02
aI-9470
aI-10752
aI-19849
aF711.15999999999997
aF511.51999999999998
aF-117.76000000000001
aa(lp82
g3
ag4
aI0
aF9.6788170337677002
aF-0.54000000000000004
aF-0.26000000000000001
aF0.040000000000000001
aI-10556
aI-6882
aI-8681
aF699.20000000000005
aF644.91999999999996
aF-170.19999999999999
aa(lp83
g3
ag4
aI0
aF9.8541350364685059
aF-0.5
aF-0.5
aF0.02
aI741
aI941
aI-2204
aF683.55999999999995
aF706.55999999999995
aF-195.03999999999999
aa(lp84
g3
ag4
aI0
aF9.9541401863098145
aF-0.41999999999999998
aF-0.68000000000000005
aF0.070000000000000007
aI2891
aI2891
aI3575
aF669.75999999999999
aF719.44000000000005
aF-197.80000000000001
aa(lp85
g3
ag4
aI0
aF10.054220199584961
aF-0.48999999999999999
aF-0.62
aF0.14999999999999999
aI7688
aI6276
aI8968
aF688.15999999999997
aF684.48000000000002
aF-201.47999999999999
aa(lp86
g3
ag4
aI0
aF10.181349039077759
aF-0.64000000000000001
aF-0.46999999999999997
aF0.17999999999999999
aI3272
aI10917
aI16391
aF713
aF589.72000000000003
aF-159.16
aa(lp87
g3
ag4
aI0
aF10.353659152984619
aF-0.79000000000000004
aF-0.28000000000000003
aF0.080000000000000002
aI1270
aI23060
aI15894
aF678.96000000000004
aF439.75999999999999
aF-43.240000000000002
aa(lp88
g3
ag4
aI0
aF10.454006195068359
aF-0.66000000000000003
aF-0.01
aF-0.20000000000000001
aI-5953
aI16527
aI16200
aF473.80000000000001
aF302.68000000000001
aF133.40000000000001
aa(lp89
g3
ag4
aI0
aF10.564921140670776
aF-0.46999999999999997
aF0.26000000000000001
aF-0.40999999999999998
aI-11660
aI13859
aI13459
aF260.36000000000001
aF173.88
aF149.03999999999999
aa(lp90
g3
ag4
aI0
aF10.684938192367554
aF-0.38
aF0.56000000000000005
aF-0.56000000000000005
aI-12430
aI9459
aI11360
aF108.56
aF85.560000000000002
aF72.680000000000007
aa(lp91
g3
ag4
aI0
aF10.853277206420898
aF-0.14000000000000001
aF0.81999999999999995
aF-0.53000000000000003
aI-11971
aI6250
aI8403
aF-16.559999999999999
aF57.960000000000001
aF-39.560000000000002
aa(lp92
g3
ag4
aI0
aF10.953044176101685
aF-0.050000000000000003
aF0.91000000000000003
aF-0.52000000000000002
aI-2294
aI-4555
aI1062
aF-56.119999999999997
aF67.159999999999997
aF-100.28
aa(lp93
g3
ag4
aI0
aF11.054286003112793
aF-0.040000000000000001
aF0.94999999999999996
aF-0.51000000000000001
aI4992
aI-9938
aI-4602
aF-43.240000000000002
aF62.560000000000002
aF-75.439999999999998
aa(lp94
g3
ag4
aI0
aF11.175209045410156
aF-0.10000000000000001
aF0.96999999999999997
aF-0.46999999999999997
aI7768
aI-13443
aI-12340
aF57.960000000000001
aF50.600000000000001
aF16.559999999999999
aa(lp95
g3
ag4
aI0
aF11.288680076599121
aF-0.31
aF0.95999999999999996
aF-0.40000000000000002
aI5067
aI-19729
aI-20235
aF256.68000000000001
aF73.599999999999994
aF83.719999999999999
aa(lp96
g3
ag4
aI0
aF11.454154014587402
aF-0.71999999999999997
aF0.69999999999999996
aF-0.23999999999999999
aI-4050
aI-21833
aI-26144
aF541.88
aF173.88
aF22.079999999999998
aa(lp97
g3
ag4
aI0
aF11.553640127182007
aF-0.75
aF0.32000000000000001
aF-0.029999999999999999
aI-9773
aI-14696
aI-23070
aF709.32000000000005
aF358.80000000000001
aF-124.2
aa(lp98
g3
ag4
aI0
aF11.672616004943848
aF-0.65000000000000002
aF-0.02
aF0.059999999999999998
aI-7860
aI-849
aI-17953
aF729.55999999999995
aF560.27999999999997
aF-198.72
aa(lp99
g3
ag4
aI0
aF11.79259204864502
aF-0.51000000000000001
aF-0.38
aF0.029999999999999999
aI-6261
aI-2328
aI-8891
aF686.32000000000005
aF686.32000000000005
aF-184.91999999999999
aa(lp100
g3
ag4
aI0
aF11.954127073287964
aF-0.37
aF-0.56999999999999995
aF0.050000000000000003
aI7219
aI4392
aI-518
aF658.72000000000003
aF724.03999999999996
aF-171.12
aa(lp101
g3
ag4
aI0
aF12.062419176101685
aF-0.46999999999999997
aF-0.66000000000000003
aF0.13
aI2916
aI330
aI14345
aF667.91999999999996
aF719.44000000000005
aF-176.63999999999999
aa(lp102
g3
ag4
aI0
aF12.180059194564819
aF-0.60999999999999999
aF-0.56000000000000005
aF0.16
aI9707
aI12565
aI11300
aF712.08000000000004
aF594.32000000000005
aF-163.75999999999999
aa(lp103
g3
ag4
aI0
aF12.353877067565918
aF-0.73999999999999999
aF-0.35999999999999999
aF0.01
aI-1221
aI11676
aI17232
aF689.08000000000004
aF479.31999999999999
aF-55.200000000000003
aa(lp104
g3
ag4
aI0
aF12.453021049499512
aF-0.78000000000000003
aF-0.17999999999999999
aF-0.10000000000000001
aI-934
aI20292
aI16827
aF583.27999999999997
aF330.27999999999997
aF61.640000000000001
aa(lp105
g3
ag4
aI0
aF12.566334009170532
aF-0.68000000000000005
aF0.20000000000000001
aF-0.37
aI-8949
aI12123
aI15517
aF353.27999999999997
aF208.84
aF150.88
aa(lp106
g3
ag4
aI0
aF12.680164098739624
aF-0.47999999999999998
aF0.54000000000000004
aF-0.55000000000000004
aI-10456
aI6891
aI12270
aF174.80000000000001
aF112.23999999999999
aF110.40000000000001
aa(lp107
g3
ag4
aI0
aF12.854124069213867
aF-0.26000000000000001
aF0.67000000000000004
aF-0.55000000000000004
aI-9975
aI6755
aI9217
aF52.439999999999998
aF70.840000000000003
aF30.359999999999999
aa(lp108
g3
ag4
aI0
aF12.954110145568848
aF-0.12
aF0.83999999999999997
aF-0.48999999999999999
aI-7278
aI3412
aI6487
aF-29.440000000000001
aF65.319999999999993
aF-46.920000000000002
aa(lp109
g3
ag4
aI0
aF13.054006099700928
aF-0.02
aF0.93000000000000005
aF-0.46999999999999997
aI-1949
aI-299
aI1411
aF-54.280000000000001
aF68.079999999999998
aF-67.159999999999997
aa(lp110
g3
ag4
aI0
aF13.168658018112183
aF-0.02
aF0.96999999999999997
aF-0.5
aI5409
aI-7856
aI-6274
aF-43.240000000000002
aF69
aF-58.880000000000003
aa(lp111
g3
ag4
aI0
aF13.296264171600342
aF-0.16
aF1.03
aF-0.56000000000000005
aI9306
aI-15002
aI-14846
aF82.799999999999997
aF54.280000000000001
aF34.039999999999999
aa(lp112
g3
ag4
aI0
aF13.454169988632202
aF-0.32000000000000001
aF0.91000000000000003
aF-0.47999999999999998
aI5370
aI-21724
aI-24717
aF346.83999999999997
aF105.8
aF93.840000000000003
aa(lp113
g3
ag4
aI0
aF13.553567171096802
aF-0.59999999999999998
aF0.63
aF-0.23000000000000001
aI-8189
aI-17391
aI-26221
aF655.03999999999996
aF278.75999999999999
aF-47.840000000000003
aa(lp114
g3
ag4
aI0
aF13.680078983306885
aF-0.59999999999999998
aF0.28999999999999998
aF0
aI-7676
aI-8003
aI-18505
aF728.63999999999999
aF476.56
aF-153.63999999999999
aa(lp115
g3
ag4
aI0
aF13.808747053146362
aF-0.56999999999999995
aF-0.11
aF0.10000000000000001
aI-5744
aI-5285
aI-13387
aF717.60000000000002
aF627.44000000000005
aF-209.75999999999999
aa(lp116
g3
ag4
aI0
aF13.953216075897217
aF-0.48999999999999999
aF-0.44
aF0.050000000000000003
aI-5442
aI3384
aI-4175
aF700.12
aF667.91999999999996
aF-212.52000000000001
aa(lp117
g3
ag4
aI0
aF14.063831090927124
aF-0.39000000000000001
aF-0.63
aF0.040000000000000001
aI4551
aI3407
aI-3799
aF672.51999999999998
aF707.48000000000002
aF-168.36000000000001
aa(lp118
g3
ag4
aI0
aF14.177623987197876
aF-0.41999999999999998
aF-0.68000000000000005
aF0.080000000000000002
aI4846
aI2152
aI10018
aF668.84000000000003
aF712.08000000000004
aF-165.59999999999999
aa(lp119
g3
ag4
aI0
aF14.353885173797607
aF-0.57999999999999996
aF-0.63
aF0.089999999999999997
aI5450
aI11972
aI14209
aF702.88
aF609.96000000000004
aF-147.19999999999999
aa(lp120
g3
ag4
aI0
aF14.453703165054321
aF-0.69999999999999996
aF-0.45000000000000001
aF0.029999999999999999
aI4153
aI18518
aI15659
aF670.67999999999995
aF477.48000000000002
aF-27.600000000000001
aa(lp121
g3
ag4
aI0
aF14.553577184677124
aF-0.77000000000000002
aF-0.17000000000000001
aF-0.19
aI-4315
aI21696
aI15668
aF520.72000000000003
aF343.16000000000003
aF115
aa(lp122
g3
ag4
aI0
aF14.691309213638306
aF-0.72999999999999998
aF0.20000000000000001
aF-0.45000000000000001
aI-8419
aI11348
aI12410
aF323.83999999999997
aF221.72
aF160.08000000000001
aa(lp123
g3
ag4
aI0
aF14.853551149368286
aF-0.40000000000000002
aF0.31
aF-0.46999999999999997
aI-12992
aI14002
aI10547
aF135.24000000000001
aF126.95999999999999
aF111.31999999999999
aa(lp124
g3
ag4
aI0
aF14.953485012054443
aF-0.25
aF0.68000000000000005
aF-0.56999999999999995
aI-12097
aI2042
aI6957
aF24.84
aF69
aF11.039999999999999
aa(lp125
g3
ag4
aI0
aF15.052917003631592
aF-0.11
aF0.82999999999999996
aF-0.57999999999999996
aI-7642
aI1208
aI5809
aF-10.119999999999999
aF58.880000000000003
aF-32.200000000000003
aa(lp126
g3
ag4
aI0
aF15.185056209564209
aF-0.040000000000000001
aF0.89000000000000001
aF-0.53000000000000003
aI-2863
aI-3637
aI2443
aF-51.520000000000003
aF66.239999999999995
aF-78.200000000000003
aa(lp127
g3
ag4
aI0
aF15.353406190872192
aF0.040000000000000001
aF0.93000000000000005
aF-0.46000000000000002
aI2504
aI-6697
aI-2559
aF-41.399999999999999
aF62.560000000000002
aF-61.640000000000001
aa(lp128
g3
ag4
aI0
aF15.453755140304565
aF-0.029999999999999999
aF0.96999999999999997
aF-0.47999999999999998
aI7147
aI-15209
aI-11279
aF51.520000000000003
aF58.880000000000003
aF11.039999999999999
aa(lp129
g3
ag4
aI0
aF15.557520151138306
aF-0.28000000000000003
aF0.93999999999999995
aF-0.48999999999999999
aI6884
aI-13371
aI-17883
aF264.04000000000002
aF73.599999999999994
aF80.959999999999994
aa(lp130
g3
ag4
aI0
aF15.683862209320068
aF-0.56000000000000005
aF0.73999999999999999
aF-0.35999999999999999
aI709
aI-17821
aI-22333
aF511.51999999999998
aF170.19999999999999
aF47.840000000000003
aa(lp131
g3
ag4
aI0
aF15.85404109954834
aF-0.67000000000000004
aF0.44
aF-0.10000000000000001
aI-6560
aI-17888
aI-22338
aF617.32000000000005
aF247.47999999999999
aF-16.559999999999999
aa(lp132
g3
ag4
aI0
aF15.953383207321167
aF-0.70999999999999996
aF0.11
aF0.10000000000000001
aI-12834
aI-9924
aI-17628
aF737.84000000000003
aF442.51999999999998
aF-197.80000000000001
aa(lp133
g3
ag4
aI0
aF16.084019184112549
aF-0.56999999999999995
aF-0.20999999999999999
aF0.13
aI-3942
aI3912
aI-14890
aF724.96000000000004
aF609.03999999999996
aF-228.16
aa(lp134
g3
ag4
aI0
aF16.254008054733276
aF-0.34999999999999998
aF-0.5
aF0.11
aI1007
aI1655
aI-9927
aF652.27999999999997
aF742.44000000000005
aF-173.88
aa(lp135
g3
ag4
aI0
aF16.353062152862549
aF-0.29999999999999999
aF-0.69999999999999996
aF0.10000000000000001
aI4729
aI712
aI9549
aF618.24000000000001
aF776.48000000000002
aF-150.88
aa(lp136
g3
ag4
aI0
aF16.454106092453003
aF-0.44
aF-0.70999999999999996
aF0.089999999999999997
aI3266
aI3167
aI10824
aF679.88
aF690.91999999999996
aF-165.59999999999999
aa(lp137
g3
ag4
aI0
aF16.556421041488647
aF-0.55000000000000004
aF-0.63
aF0.12
aI4419
aI5926
aI14387
aF706.55999999999995
aF599.84000000000003
aF-141.68000000000001
aa(lp138
g3
ag4
aI0
aF16.707723140716553
aF-0.71999999999999997
aF-0.46000000000000002
aF0.11
aI6648
aI11575
aI14225
aF695.51999999999998
aF465.51999999999998
aF-64.400000000000006
aa(lp139
g3
ag4
aI0
aF16.853173017501831
aF-0.82999999999999996
aF-0.20000000000000001
aF-0.050000000000000003
aI-3336
aI14656
aI16947
aF652.27999999999997
aF397.44
aF-3.6800000000000002
aa(lp140
g3
ag4
aI0
aF16.962663173675537
aF-0.76000000000000001
aF0.040000000000000001
aF-0.26000000000000001
aI-7077
aI15960
aI14629
aF511.51999999999998
aF262.19999999999999
aF97.519999999999996
aa(lp141
g3
ag4
aI0
aF17.083832025527954
aF-0.62
aF0.33000000000000002
aF-0.46000000000000002
aI-9182
aI14831
aI11234
aF299.92000000000002
aF155.47999999999999
aF134.31999999999999
aa(lp142
g3
ag4
aI0
aF17.253700017929077
aF-0.38
aF0.56999999999999995
aF-0.51000000000000001
aI-9845
aI9806
aI9742
aF132.47999999999999
aF83.719999999999999
aF76.359999999999999
aa(lp143
g3
ag4
aI0
aF17.35411810874939
aF-0.13
aF0.75
aF-0.47999999999999998
aI-9528
aI6098
aI8215
aF17.48
aF53.359999999999999
aF-13.800000000000001
aa(lp144
g3
ag4
aI0
aF17.453575134277344
aF-0.070000000000000007
aF0.88
aF-0.51000000000000001
aI-4562
aI-5629
aI3268
aF-32.200000000000003
aF56.119999999999997
aF-69.920000000000002
aa(lp145
g3
ag4
aI0
aF17.553645133972168
aF0.01
aF0.92000000000000004
aF-0.47999999999999998
aI2444
aI-3266
aI-1915
aF-25.760000000000002
aF58.880000000000003
aF-56.119999999999997
aa(lp146
g3
ag4
aI0
aF17.681600093841553
aF-0.050000000000000003
aF1
aF-0.48999999999999999
aI6470
aI-18772
aI-9885
aF13.800000000000001
aF51.520000000000003
aF-21.16
aa(lp147
g3
ag4
aI0
aF17.853713035583496
aF-0.29999999999999999
aF1.03
aF-0.42999999999999999
aI4778
aI-19607
aI-22178
aF224.47999999999999
aF55.200000000000003
aF64.400000000000006
aa(lp148
g3
ag4
aI0
aF17.954085111618042
aF-0.59999999999999998
aF0.75
aF-0.20000000000000001
aI-4968
aI-17907
aI-25793
aF540.96000000000004
aF150.88
aF7.3600000000000003
aa(lp149
g3
ag4
aI0
aF18.05992317199707
aF-0.70999999999999996
aF0.44
aF0
aI-7922
aI-8230
aI-20556
aF708.39999999999998
aF336.72000000000003
aF-127.88
aa(lp150
g3
ag4
aI0
aF18.176395177841187
aF-0.68000000000000005
aF0.01
aF0.16
aI-7098
aI-7718
aI-16419
aF734.15999999999997
aF523.48000000000002
aF-197.80000000000001
aa(lp151
g3
ag4
aI0
aF18.3540940284729
aF-0.67000000000000004
aF-0.31
aF0.080000000000000002
aI-14204
aI1320
aI-10909
aF713
aF644.91999999999996
aF-218.03999999999999
aa(lp152
g3
ag4
aI0
aF18.453938007354736
aF-0.40000000000000002
aF-0.46000000000000002
aF0.040000000000000001
aI5358
aI6367
aI-9294
aF648.60000000000002
aF736
aF-153.63999999999999
aa(lp153
g3
ag4
aI0
aF18.553763151168823
aF-0.40999999999999998
aF-0.67000000000000004
aF0.11
aI7159
aI-3707
aI15294
aF670.67999999999995
aF717.60000000000002
aF-179.40000000000001
aa(lp154
g3
ag4
aI0
aF18.701351165771484
aF-0.54000000000000004
aF-0.67000000000000004
aF0.10000000000000001
aI9154
aI10094
aI10260
aF703.79999999999995
aF648.60000000000002
aF-173.88
aa(lp155
g3
ag4
aI0
aF18.853260040283203
aF-0.72999999999999998
aF-0.41999999999999998
aF0.11
aI2279
aI10792
aI17149
aF710.24000000000001
aF548.32000000000005
aF-115.92
aa(lp156
g3
ag4
aI0
aF18.952829122543335
aF-0.76000000000000001
aF-0.27000000000000002
aF-0.12
aI-2597
aI17687
aI16170
aF647.67999999999995
aF405.72000000000003
aF10.119999999999999
aa(lp157
g3
ag4
aI0
aF19.077753067016602
aF-0.85999999999999999
aF0.040000000000000001
aF-0.22
aI-2073
aI24924
aI13349
aF478.39999999999998
aF269.56
aF120.52
aa(lp158
g3
ag4
aI0
aF19.253822088241577
aF-0.45000000000000001
aF0.29999999999999999
aF-0.39000000000000001
aI-12782
aI7502
aI11021
aF200.56
aF161.91999999999999
aF143.52000000000001
aa(lp159
g3
ag4
aI0
aF19.354082107543945
aF-0.25
aF0.69999999999999996
aF-0.54000000000000004
aI-11656
aI4764
aI8483
aF78.200000000000003
aF92
aF66.239999999999995
aa(lp160
g3
ag4
aI0
aF19.454053163528442
aF-0.14000000000000001
aF0.83999999999999997
aF-0.56000000000000005
aI-11071
aI5473
aI7870
aF-1.8400000000000001
aF57.960000000000001
aF-27.600000000000001
aa(lp161
g3
ag4
aI0
aF19.568895101547241
aF-0.029999999999999999
aF0.94999999999999996
aF-0.57999999999999996
aI-4208
aI-4754
aI2274
aF-43.240000000000002
aF59.799999999999997
aF-78.200000000000003
aa(lp162
g3
ag4
aI0
aF19.685014009475708
aF-0.01
aF0.97999999999999998
aF-0.54000000000000004
aI4085
aI-11752
aI-4134
aF-18.399999999999999
aF57.039999999999999
aF-55.200000000000003
aa(lp163
g3
ag4
aI0
aF19.854046106338501
aF-0.20000000000000001
aF1
aF-0.44
aI6277
aI-21429
aI-15484
aF110.40000000000001
aF48.759999999999998
aF35.880000000000003
aa(lp164
g3
ag4
aI0
aF19.953596115112305
aF-0.46999999999999997
aF0.91000000000000003
aF-0.34999999999999998
aI2631
aI-16105
aI-22933
aF371.68000000000001
aF90.159999999999997
aF63.479999999999997
aa(lp165
g3
ag4
aI0
aF20.068782091140747
aF-0.68000000000000005
aF0.62
aF-0.16
aI-4693
aI-15865
aI-22529
aF612.72000000000003
aF221.72
aF-28.52
aa(lp166
g3
ag4
aI0
aF20.208923101425171
aF-0.68999999999999995
aF0.27000000000000002
aF0.080000000000000002
aI-6773
aI-8756
aI-17986
aF728.63999999999999
aF397.44
aF-163.75999999999999
aa(lp167
g3
ag4
aI0
aF20.353494167327881
aF-0.68999999999999995
aF-0.059999999999999998
aF0.20000000000000001
aI-9353
aI-6363
aI-12691
aF736.91999999999996
aF552.91999999999996
aF-241.96000000000001
aa(lp168
g3
ag4
aI0
aF20.452980995178223
aF-0.58999999999999997
aF-0.37
aF0.14999999999999999
aI-9904
aI3945
aI-7988
aF708.39999999999998
aF654.12
aF-225.40000000000001
aa(lp169
g3
ag4
aI0
aF20.570192098617554
aF-0.44
aF-0.57999999999999996
aF0.11
aI3951
aI4432
aI-4669
aF662.39999999999998
aF728.63999999999999
aF-184.91999999999999
aa(lp170
g3
ag4
aI0
aF20.718847036361694
aF-0.46000000000000002
aF-0.69999999999999996
aF0.11
aI2555
aI635
aI11190
aF659.63999999999999
aF727.72000000000003
aF-174.80000000000001
aa(lp171
g3
ag4
aI0
aF20.853425025939941
aF-0.56000000000000005
aF-0.66000000000000003
aF0.12
aI9743
aI10781
aI9916
aF706.55999999999995
aF627.44000000000005
aF-164.68000000000001
aa(lp172
g3
ag4
aI0
aF20.952991008758545
aF-0.72999999999999998
aF-0.44
aF0.10000000000000001
aI2923
aI14400
aI15447
aF698.27999999999997
aF513.36000000000001
aF-79.120000000000005
aa(lp173
g3
ag4
aI0
aF21.069043159484863
aF-0.84999999999999998
aF-0.23999999999999999
aF-0.070000000000000007
aI-1009
aI14384
aI13046
aF619.15999999999997
aF387.31999999999999
aF40.479999999999997
aa(lp174
g3
ag4
aI0
aF21.222501993179321
aF-0.75
aF-0.080000000000000002
aF-0.26000000000000001
aI-3946
aI18864
aI13107
aF460.92000000000002
aF279.68000000000001
aF137.08000000000001
aa(lp175
g3
ag4
aI0
aF21.353936195373535
aF-0.52000000000000002
aF0.25
aF-0.48999999999999999
aI-12387
aI8320
aI12379
aF228.16
aF165.59999999999999
aF149.96000000000001
aa(lp176
g3
ag4
aI0
aF21.453559160232544
aF-0.44
aF0.56000000000000005
aF-0.62
aI-11998
aI5337
aI9582
aF123.28
aF81.879999999999995
aF71.760000000000005
aa(lp177
g3
ag4
aI0
aF21.56513500213623
aF-0.20000000000000001
aF0.72999999999999998
aF-0.56000000000000005
aI-8957
aI3942
aI8382
aF74.519999999999996
aF60.719999999999999
aF31.280000000000001
aa(lp178
g3
ag4
aI0
aF21.710293054580688
aF-0.12
aF0.87
aF-0.52000000000000002
aI-4919
aI-2280
aI4946
aF0
aF48.759999999999998
aF-42.32
aa(lp179
g3
ag4
aI0
aF21.853798151016235
aF-0.02
aF0.91000000000000003
aF-0.45000000000000001
aI-849
aI-1301
aI1712
aF-25.760000000000002
aF55.200000000000003
aF-62.560000000000002
aa(lp180
g3
ag4
aI0
aF21.953644990921021
aF0.029999999999999999
aF0.92000000000000004
aF-0.35999999999999999
aI1567
aI-1254
aI-634
aF-23.920000000000002
aF63.479999999999997
aF-51.520000000000003
aa(lp181
g3
ag4
aI0
aF22.08376407623291
aF0.070000000000000007
aF0.91000000000000003
aF-0.33000000000000002
aI1492
aI-1006
aI-1121
aF-15.640000000000001
aF61.640000000000001
aF-39.560000000000002
aa(lp182
g3
ag4
aI0
aF22.252811193466187
aF0.080000000000000002
aF0.89000000000000001
aF-0.33000000000000002
aI889
aI-118
aI-678
aF-7.3600000000000003
aF59.799999999999997
aF-30.359999999999999
aa(lp183
g3
ag4
aI0
aF22.353597164154053
aF0.089999999999999997
aF0.89000000000000001
aF-0.34000000000000002
aI170
aI222
aI-3
aF-5.5199999999999996
aF59.799999999999997
aF-27.600000000000001
aa(lp184
g3
ag4
aI0
aF22.453311204910278
aF0.089999999999999997
aF0.89000000000000001
aF-0.35999999999999999
aI-70
aI60
aI96
aF-6.4400000000000004
aF57.039999999999999
aF-27.600000000000001
aa(lp185
g3
ag4
aI0
aF22.553887128829956
aF0.089999999999999997
aF0.89000000000000001
aF-0.35999999999999999
aI-86
aI-79
aI330
aF-8.2799999999999994
aF57.960000000000001
aF-33.119999999999997
aa(lp186
g3
ag4
aI0
aF22.653753042221069
aF0.089999999999999997
aF0.90000000000000002
aF-0.37
aI26
aI274
aI214
aF-9.1999999999999993
aF59.799999999999997
aF-29.440000000000001
aa(lp187
g3
ag4
aI0
aF22.770065069198608
aF0.089999999999999997
aF0.90000000000000002
aF-0.35999999999999999
aI130
aI-858
aI-70
aF-6.4400000000000004
aF61.640000000000001
aF-28.52
aa(lp188
g3
ag4
aI0
aF22.892556190490723
aF0.089999999999999997
aF0.90000000000000002
aF-0.35999999999999999
aI315
aI-250
aI-453
aF-2.7599999999999998
aF58.880000000000003
aF-26.68
aa(lp189
g3
ag4
aI0
aF23.052728176116943
aF0.089999999999999997
aF0.89000000000000001
aF-0.34999999999999998
aI79
aI521
aI-178
aF0
aF59.799999999999997
aF-25.760000000000002
aa(lp190
g3
ag4
aI0
aF23.153871059417725
aF0.089999999999999997
aF0.90000000000000002
aF-0.34000000000000002
aI70
aI382
aI-87
aF-1.8400000000000001
aF61.640000000000001
aF-25.760000000000002
aa(lp191
g3
ag4
aI0
aF23.253534078598022
aF0.089999999999999997
aF0.90000000000000002
aF-0.33000000000000002
aI61
aI336
aI-105
aF-2.7599999999999998
aF54.280000000000001
aF-27.600000000000001
aa(lp192
g3
ag4
aI0
aF23.358867168426514
aF0.089999999999999997
aF0.90000000000000002
aF-0.32000000000000001
aI71
aI45
aI-156
aF0.92000000000000004
aF59.799999999999997
aF-28.52
aa(lp193
g3
ag4
aI0
aF23.477601051330566
aF0.080000000000000002
aF0.90000000000000002
aF-0.32000000000000001
aI55
aI-192
aI-7
aF-1.8400000000000001
aF56.119999999999997
aF-25.760000000000002
aa(lp194
g3
ag4
aI0
aF23.652661085128784
aF0.089999999999999997
aF0.90000000000000002
aF-0.32000000000000001
aI141
aI135
aI148
aF-2.7599999999999998
aF58.880000000000003
aF-30.359999999999999
aa(lp195
g3
ag4
aI0
aF23.753575086593628
aF0.089999999999999997
aF0.90000000000000002
aF-0.32000000000000001
aI101
aI66
aI214
aF-2.7599999999999998
aF58.880000000000003
aF-30.359999999999999
aa(lp196
g3
ag4
aI0
aF23.852550029754639
aF0.089999999999999997
aF0.90000000000000002
aF-0.32000000000000001
aI130
aI34
aI157
aF-4.5999999999999996
aF57.960000000000001
aF-30.359999999999999
aa(lp197
g3
ag4
aI0
aF23.952944040298462
aF0.089999999999999997
aF0.90000000000000002
aF-0.32000000000000001
aI169
aI-86
aI120
aF0
aF57.960000000000001
aF-30.359999999999999
aa(lp198
g3
ag4
aI0
aF24.052769184112549
aF0.089999999999999997
aF0.90000000000000002
aF-0.32000000000000001
aI183
aI-44
aI64
aF-3.6800000000000002
aF58.880000000000003
aF-29.440000000000001
aa(lp199
g3
ag4
aI0
aF24.157527208328247
aF0.089999999999999997
aF0.90000000000000002
aF-0.33000000000000002
aI147
aI85
aI101
aF-3.6800000000000002
aF58.880000000000003
aF-26.68
aa(lp200
g3
ag4
aI0
aF24.272445201873779
aF0.089999999999999997
aF0.90000000000000002
aF-0.34000000000000002
aI183
aI111
aI90
aF-3.6800000000000002
aF60.719999999999999
aF-31.280000000000001
aa(lp201
g3
ag4
aI0
aF24.45387601852417
aF0.089999999999999997
aF0.89000000000000001
aF-0.34000000000000002
aI137
aI165
aI80
aF-4.5999999999999996
aF59.799999999999997
aF-31.280000000000001
aa(lp202
g3
ag4
aI0
aF24.553140163421631
aF0.089999999999999997
aF0.89000000000000001
aF-0.34999999999999998
aI215
aI320
aI35
aF-4.5999999999999996
aF57.960000000000001
aF-30.359999999999999
aa(lp203
g3
ag4
aI0
aF24.653681039810181
aF0.089999999999999997
aF0.90000000000000002
aF-0.34999999999999998
aI132
aI255
aI-16
aF-7.3600000000000003
aF58.880000000000003
aF-30.359999999999999
aa(lp204
g3
ag4
aI0
aF24.752714157104492
aF0.089999999999999997
aF0.90000000000000002
aF-0.34000000000000002
aI177
aI-40
aI30
aF-6.4400000000000004
aF60.719999999999999
aF-30.359999999999999
aa(lp205
g3
ag4
aI0
aF24.85891318321228
aF0.089999999999999997
aF0.90000000000000002
aF-0.34999999999999998
aI47
aI137
aI86
aF-6.4400000000000004
aF57.039999999999999
aF-33.119999999999997
aa(lp206
g3
ag4
aI0
aF24.976450204849243
aF0.10000000000000001
aF0.89000000000000001
aF-0.34999999999999998
aI144
aI248
aI52
aF-8.2799999999999994
aF61.640000000000001
aF-31.280000000000001
aa(lp207
g3
ag4
aI0
aF25.153753995895386
aF0.10000000000000001
aF0.90000000000000002
aF-0.34999999999999998
aI172
aI-1
aI-6
aF-9.1999999999999993
aF58.880000000000003
aF-33.119999999999997
aa.