(lp1
(lp2
S'Lazar'
p3
aS'shoulder'
p4
aI0
aF0
aI0
aI0
aI0
aI0
aI0
aI0
aI0
aI0
aI0
aa(lp5
g3
ag4
aI0
aF0.16829895973205566
aF0.51000000000000001
aF-0.95999999999999996
aF-0.13
aI92
aI599
aI722
aF-173.88
aF767.27999999999997
aF-232.75999999999999
aa(lp6
g3
ag4
aI0
aF0.24638009071350098
aF0.48999999999999999
aF-0.96999999999999997
aF-0.11
aI410
aI-410
aI531
aF-170.19999999999999
aF772.79999999999995
aF-233.68000000000001
aa(lp7
g3
ag4
aI0
aF0.34631705284118652
aF0.48999999999999999
aF-0.96999999999999997
aF-0.12
aI171
aI-522
aI-91
aF-168.36000000000001
aF770.96000000000004
aF-230.91999999999999
aa(lp8
g3
ag4
aI0
aF0.46332406997680664
aF0.5
aF-0.96999999999999997
aF-0.13
aI3
aI85
aI130
aF-169.28
aF770.03999999999996
aF-230
aa(lp9
g3
ag4
aI0
aF0.58084011077880859
aF0.48999999999999999
aF-0.96999999999999997
aF-0.14000000000000001
aI-8
aI-303
aI224
aF-167.44
aF772.79999999999995
aF-229.08000000000001
aa(lp10
g3
ag4
aI0
aF0.7466740608215332
aF0.5
aF-0.96999999999999997
aF-0.14000000000000001
aI138
aI149
aI-244
aF-168.36000000000001
aF772.79999999999995
aF-227.24000000000001
aa(lp11
g3
ag4
aI0
aF0.84631204605102539
aF0.5
aF-0.95999999999999996
aF-0.13
aI656
aI-495
aI-162
aF-170.19999999999999
aF773.72000000000003
aF-229.08000000000001
aa(lp12
g3
ag4
aI0
aF0.94863510131835938
aF0.48999999999999999
aF-0.94999999999999996
aF-0.13
aI-3
aI-795
aI249
aF-172.96000000000001
aF768.20000000000005
aF-227.24000000000001
aa(lp13
g3
ag4
aI0
aF1.0699629783630371
aF0.5
aF-0.95999999999999996
aF-0.14000000000000001
aI-324
aI-2284
aI429
aF-171.12
aF771.88
aF-218.96000000000001
aa(lp14
g3
ag4
aI0
aF1.2175641059875488
aF0.56999999999999995
aF-1.1100000000000001
aF-0.17999999999999999
aI1146
aI-3069
aI162
aF-168.36000000000001
aF772.79999999999995
aF-196.88
aa(lp15
g3
ag4
aI0
aF1.3468830585479736
aF0.59999999999999998
aF-1.23
aF-0.14000000000000001
aI3178
aI-1645
aI-1823
aF-166.52000000000001
aF777.39999999999998
aF-167.44
aa(lp16
g3
ag4
aI0
aF1.4521219730377197
aF0.51000000000000001
aF-1.1200000000000001
aF-0.12
aI321
aI-71
aI896
aF-168.36000000000001
aF770.96000000000004
aF-169.28
aa(lp17
g3
ag4
aI0
aF1.5776031017303467
aF0.5
aF-1.03
aF-0.16
aI-1070
aI2565
aI3015
aF-152.72
aF794.88
aF-181.24000000000001
aa(lp18
g3
ag4
aI0
aF1.7471151351928711
aF0.37
aF-0.97999999999999998
aF-0.20999999999999999
aI-1635
aI-200
aI5665
aF-118.68000000000001
aF832.60000000000002
aF-182.16
aa(lp19
g3
ag4
aI0
aF1.8472011089324951
aF0.23000000000000001
aF-0.85999999999999999
aF-0.17999999999999999
aI-1849
aI-5643
aI8795
aF-51.520000000000003
aF884.12
aF-165.59999999999999
aa(lp20
g3
ag4
aI0
aF1.9661390781402588
aF0.20000000000000001
aF-0.77000000000000002
aF-0.13
aI99
aI5581
aI-2566
aF-30.359999999999999
aF898.84000000000003
aF-154.56
aa(lp21
g3
ag4
aI0
aF2.0850629806518555
aF0.25
aF-0.80000000000000004
aF-0.12
aI2183
aI-2127
aI-4652
aF296.24000000000001
aF2381.8800000000001
aF-14602.24
aa(lp22
g3
ag4
aI0
aF2.2461020946502686
aF0.26000000000000001
aF-0.82999999999999996
aF-0.11
aI3069
aI-3177
aI-7198
aF-83.719999999999999
aF862.96000000000004
aF-161
aa(lp23
g3
ag4
aI0
aF2.3470749855041504
aF0.34999999999999998
aF-1
aF-0.14999999999999999
aI-87
aI-41
aI-3479
aF-127.88
aF816.96000000000004
aF-163.75999999999999
aa(lp24
g3
ag4
aI0
aF2.4658939838409424
aF0.33000000000000002
aF-0.96999999999999997
aF-0.19
aI-2662
aI1833
aI-1387
aF-147.19999999999999
aF793.03999999999996
aF-152.72
aa(lp25
g3
ag4
aI0
aF2.6077351570129395
aF0.40999999999999998
aF-1.01
aF-0.20000000000000001
aI-2036
aI2176
aI-1771
aF-161
aF778.32000000000005
aF-148.12
aa(lp26
g3
ag4
aI0
aF2.7472591400146484
aF0.46000000000000002
aF-1.03
aF-0.19
aI-1539
aI1574
aI-480
aF-161.91999999999999
aF774.63999999999999
aF-140.75999999999999
aa(lp27
g3
ag4
aI0
aF2.8523731231689453
aF0.46999999999999997
aF-1.0700000000000001
aF-0.17999999999999999
aI-238
aI-1232
aI1763
aF-149.96000000000001
aF785.67999999999995
aF-136.16
aa(lp28
g3
ag4
aI0
aF2.9646620750427246
aF0.45000000000000001
aF-1.0700000000000001
aF-0.20000000000000001
aI-487
aI484
aI304
aF-145.36000000000001
aF792.12
aF-132.47999999999999
aa(lp29
g3
ag4
aI0
aF3.1098649501800537
aF0.47999999999999998
aF-1.1799999999999999
aF-0.25
aI988
aI2907
aI-1786
aF-143.52000000000001
aF792.12
aF-134.31999999999999
aa(lp30
g3
ag4
aI0
aF3.2466130256652832
aF0.52000000000000002
aF-1.21
aF-0.20999999999999999
aI2461
aI2321
aI-2469
aF-153.63999999999999
aF789.36000000000001
aF-157.31999999999999
aa(lp31
g3
ag4
aI0
aF3.3510191440582275
aF0.5
aF-1.1399999999999999
aF-0.11
aI1043
aI-1289
aI2920
aF-157.31999999999999
aF791.20000000000005
aF-171.12
aa(lp32
g3
ag4
aI0
aF3.4774990081787109
aF0.40000000000000002
aF-1.01
aF-0.10000000000000001
aI-1188
aI729
aI8119
aF-126.04000000000001
aF821.55999999999995
aF-167.44
aa(lp33
g3
ag4
aI0
aF3.6462531089782715
aF0.26000000000000001
aF-0.90000000000000002
aF-0.19
aI-4977
aI-4567
aI7769
aF-58.880000000000003
aF876.75999999999999
aF-150.88
aa(lp34
g3
ag4
aI0
aF3.7464151382446289
aF0.14999999999999999
aF-0.84999999999999998
aF-0.20000000000000001
aI-1225
aI1302
aI367
aF7.3600000000000003
aF908.03999999999996
aF-112.23999999999999
aa(lp35
g3
ag4
aI0
aF3.8850741386413574
aF0.16
aF-0.85999999999999999
aF-0.22
aI-786
aI3825
aI-5295
aF-18.399999999999999
aF892.39999999999998
aF-115.92
aa(lp36
g3
ag4
aI0
aF4.0464770793914795
aF0.20000000000000001
aF-0.84999999999999998
aF-0.23999999999999999
aI2396
aI1246
aI-7263
aF0.92000000000000004
aF9.1999999999999993
aF15722.799999999999
aa(lp37
g3
ag4
aI0
aF4.1472439765930176
aF0.28999999999999998
aF-0.94999999999999996
aF-0.26000000000000001
aI3466
aI1149
aI-7786
aF-85.560000000000002
aF850.08000000000004
aF-116.84
aa(lp38
g3
ag4
aI0
aF4.2472290992736816
aF0.34000000000000002
aF-0.94999999999999996
aF-0.23999999999999999
aI1660
aI-1724
aI-4111
aF-133.40000000000001
aF805
aF-130.63999999999999
aa(lp39
g3
ag4
aI0
aF4.3469851016998291
aF0.40000000000000002
aF-0.98999999999999999
aF-0.20999999999999999
aI59
aI1560
aI-2902
aF-153.63999999999999
aF782
aF-135.24000000000001
aa(lp40
g3
ag4
aI0
aF4.4661159515380859
aF0.46000000000000002
aF-0.97999999999999998
aF-0.20000000000000001
aI-1127
aI2884
aI-1623
aF-169.28
aF763.60000000000002
aF-146.28
aa(lp41
g3
ag4
aI0
aF4.606248140335083
aF0.5
aF-1.01
aF-0.17999999999999999
aI-1645
aI1121
aI-344
aF-178.47999999999999
aF757.15999999999997
aF-146.28
aa(lp42
g3
ag4
aI0
aF4.747230052947998
aF0.54000000000000004
aF-1.0600000000000001
aF-0.17000000000000001
aI-1435
aI276
aI1468
aF-169.28
aF759.91999999999996
aF-138.91999999999999
aa(lp43
g3
ag4
aI0
aF4.8471410274505615
aF0.51000000000000001
aF-1.0800000000000001
aF-0.19
aI-1201
aI-334
aI1105
aF-160.08000000000001
aF773.72000000000003
aF-129.72
aa(lp44
g3
ag4
aI0
aF4.9726409912109375
aF0.46999999999999997
aF-1.1000000000000001
aF-0.23000000000000001
aI1112
aI27
aI385
aF-157.31999999999999
aF773.72000000000003
aF-131.56
aa(lp45
g3
ag4
aI0
aF5.0997750759124756
aF0.47999999999999998
aF-1.1599999999999999
aF-0.23999999999999999
aI2726
aI1061
aI-251
aF-159.16
aF777.39999999999998
aF-142.59999999999999
aa(lp46
g3
ag4
aI0
aF5.247096061706543
aF0.40999999999999998
aF-1.1899999999999999
aF-0.20999999999999999
aI2268
aI-129
aI2230
aF-161.91999999999999
aF782
aF-162.84
aa(lp47
g3
ag4
aI0
aF5.3458189964294434
aF0.29999999999999999
aF-1.02
aF-0.14000000000000001
aI-453
aI1484
aI5826
aF-149.96000000000001
aF800.39999999999998
aF-166.52000000000001
aa(lp48
g3
ag4
aI0
aF5.4748740196228027
aF0.28000000000000003
aF-0.96999999999999997
aF-0.22
aI-2529
aI-3107
aI6536
aF-119.59999999999999
aF824.32000000000005
aF-157.31999999999999
aa(lp49
g3
ag4
aI0
aF5.6468009948730469
aF0.23000000000000001
aF-0.82999999999999996
aF-0.25
aI-285
aI1673
aI1841
aF-88.319999999999993
aF848.24000000000001
aF-132.47999999999999
aa(lp50
g3
ag4
aI0
aF5.7470951080322266
aF0.28999999999999998
aF-0.82999999999999996
aF-0.20000000000000001
aI2168
aI-845
aI-621
aF-86.480000000000004
aF852.84000000000003
aF-148.12
aa(lp51
g3
ag4
aI0
aF5.8522689342498779
aF0.28999999999999998
aF-0.84999999999999998
aF-0.17000000000000001
aI987
aI-2110
aI-925
aF-94.760000000000005
aF849.15999999999997
aF-149.03999999999999
aa(lp52
g3
ag4
aI0
aF5.9761340618133545
aF0.28000000000000003
aF-0.82999999999999996
aF-0.20000000000000001
aI1277
aI-2346
aI-2488
aF-114.08
aF829.84000000000003
aF-151.80000000000001
aa(lp53
g3
ag4
aI0
aF6.1470489501953125
aF0.32000000000000001
aF-0.91000000000000003
aF-0.22
aI2880
aI-965
aI-4120
aF-137.08000000000001
aF803.15999999999997
aF-148.12
aa(lp54
g3
ag4
aI0
aF6.2467279434204102
aF0.38
aF-0.98999999999999999
aF-0.22
aI-112
aI693
aI-3347
aF-161
aF775.55999999999995
aF-151.80000000000001
aa(lp55
g3
ag4
aI0
aF6.3524360656738281
aF0.41999999999999998
aF-0.97999999999999998
aF-0.20000000000000001
aI-275
aI-354
aI-1438
aF-177.56
aF747.96000000000004
aF-142.59999999999999
aa(lp56
g3
ag4
aI0
aF6.4908950328826904
aF0.46999999999999997
aF-0.97999999999999998
aF-0.20999999999999999
aI-824
aI2084
aI-461
aF-186.75999999999999
aF742.44000000000005
aF-146.28
aa(lp57
g3
ag4
aI0
aF6.646942138671875
aF0.48999999999999999
aF-0.98999999999999999
aF-0.23999999999999999
aI-520
aI1148
aI588
aF-186.75999999999999
aF744.27999999999997
aF-151.80000000000001
aa(lp58
g3
ag4
aI0
aF6.7470581531524658
aF0.46000000000000002
aF-1.01
aF-0.22
aI270
aI354
aI2051
aF-176.63999999999999
aF756.24000000000001
aF-145.36000000000001
aa(lp59
g3
ag4
aI0
aF6.8467650413513184
aF0.47999999999999998
aF-1.0700000000000001
aF-0.20000000000000001
aI266
aI-861
aI1595
aF-173.88
aF759
aF-145.36000000000001
aa(lp60
g3
ag4
aI0
aF6.9586670398712158
aF0.52000000000000002
aF-1.1100000000000001
aF-0.20000000000000001
aI-369
aI606
aI-235
aF-165.59999999999999
aF769.12
aF-138
aa(lp61
g3
ag4
aI0
aF7.0933699607849121
aF0.56000000000000005
aF-1.25
aF-0.20999999999999999
aI1791
aI3574
aI-2001
aF-170.19999999999999
aF767.27999999999997
aF-150.88
aa(lp62
g3
ag4
aI0
aF7.2471499443054199
aF0.48999999999999999
aF-1.1699999999999999
aF-0.23000000000000001
aI1822
aI-117
aI4282
aF-172.03999999999999
aF772.79999999999995
aF-191.36000000000001
aa(lp63
g3
ag4
aI0
aF7.3523061275482178
aF0.29999999999999999
aF-0.93999999999999995
aF-0.19
aI-5352
aI-1100
aI5296
aF-136.16
aF816.96000000000004
aF-191.36000000000001
aa(lp64
g3
ag4
aI0
aF7.4735629558563232
aF0.31
aF-0.91000000000000003
aF-0.11
aI808
aI-842
aI5381
aF-106.72
aF848.24000000000001
aF-183.08000000000001
aa(lp65
g3
ag4
aI0
aF7.5898420810699463
aF0.23999999999999999
aF-0.91000000000000003
aF-0.14999999999999999
aI-2363
aI-2854
aI3481
aF-80.040000000000006
aF864.79999999999995
aF-145.36000000000001
aa(lp66
g3
ag4
aI0
aF7.7472701072692871
aF0.25
aF-0.87
aF-0.19
aI-3826
aI3090
aI1156
aF-70.840000000000003
aF866.63999999999999
aF-138
aa(lp67
g3
ag4
aI0
aF7.8468711376190186
aF0.33000000000000002
aF-0.90000000000000002
aF-0.20000000000000001
aI1345
aI23
aI-3195
aF-69.920000000000002
aF863.88
aF-128.80000000000001
aa(lp68
g3
ag4
aI0
aF7.9573309421539307
aF0.29999999999999999
aF-0.82999999999999996
aF-0.20999999999999999
aI1612
aI-766
aI-4507
aF-96.599999999999994
aF846.39999999999998
aF-140.75999999999999
aa(lp69
g3
ag4
aI0
aF8.1097719669342041
aF0.35999999999999999
aF-0.84999999999999998
aF-0.19
aI3418
aI-636
aI-5976
aF-144.44
aF804.08000000000004
aF-161
aa(lp70
g3
ag4
aI0
aF8.2470090389251709
aF0.45000000000000001
aF-0.96999999999999997
aF-0.17999999999999999
aI2304
aI-4864
aI-2173
aF-174.80000000000001
aF764.51999999999998
aF-164.68000000000001
aa(lp71
g3
ag4
aI0
aF8.346714973449707
aF0.40000000000000002
aF-0.95999999999999996
aF-0.19
aI2203
aI-2186
aI1831
aF-176.63999999999999
aF753.48000000000002
aF-138
aa(lp72
g3
ag4
aI0
aF8.4873330593109131
aF0.46000000000000002
aF-0.96999999999999997
aF-0.17000000000000001
aI882
aI1657
aI1808
aF-178.47999999999999
aF759
aF-160.08000000000001
aa(lp73
g3
ag4
aI0
aF8.6464409828186035
aF0.47999999999999998
aF-1.05
aF-0.20999999999999999
aI-2382
aI1801
aI-44
aF-172.03999999999999
aF765.44000000000005
aF-160.08000000000001
aa(lp74
g3
ag4
aI0
aF8.7466349601745605
aF0.44
aF-0.98999999999999999
aF-0.19
aI-305
aI-176
aI743
aF-172.03999999999999
aF766.36000000000001
aF-156.40000000000001
aa(lp75
g3
ag4
aI0
aF8.846250057220459
aF0.46000000000000002
aF-1.04
aF-0.14999999999999999
aI651
aI-2107
aI1826
aF-170.19999999999999
aF763.60000000000002
aF-147.19999999999999
aa(lp76
g3
ag4
aI0
aF9.0061709880828857
aF0.52000000000000002
aF-1.1399999999999999
aF-0.17999999999999999
aI-733
aI44
aI1363
aF-162.84
aF770.03999999999996
aF-141.68000000000001
aa(lp77
g3
ag4
aI0
aF9.1462931632995605
aF0.54000000000000004
aF-1.24
aF-0.23999999999999999
aI167
aI3257
aI-604
aF-160.08000000000001
aF774.63999999999999
aF-139.84
aa(lp78
g3
ag4
aI0
aF9.2464981079101562
aF0.46999999999999997
aF-1.1699999999999999
aF-0.25
aI-1219
aI4350
aI-224
aF-160.08000000000001
aF785.67999999999995
aF-162.84
aa(lp79
g3
ag4
aI0
aF9.346174955368042
aF0.40000000000000002
aF-1.04
aF-0.20000000000000001
aI-2480
aI2118
aI3045
aF-149.03999999999999
aF794.88
aF-166.52000000000001
aa(lp80
g3
ag4
aI0
aF9.4750030040740967
aF0.32000000000000001
aF-0.92000000000000004
aF-0.22
aI-4901
aI773
aI5589
aF-115.92
aF828.91999999999996
aF-146.28
aa(lp81
g3
ag4
aI0
aF9.6459000110626221
aF0.28000000000000003
aF-0.75
aF-0.23000000000000001
aI-245
aI-6273
aI5184
aF-98.439999999999998
aF845.48000000000002
aF-143.52000000000001
aa(lp82
g3
ag4
aI0
aF9.7471089363098145
aF0.25
aF-0.81000000000000005
aF-0.23000000000000001
aI-1531
aI4224
aI-2517
aF-43.240000000000002
aF879.51999999999998
aF-113.16
aa(lp83
g3
ag4
aI0
aF9.8539140224456787
aF0.23000000000000001
aF-0.79000000000000004
aF-0.29999999999999999
aI-2620
aI-1346
aI-1208
aF-71.760000000000005
aF857.44000000000005
aF-113.16
aa(lp84
g3
ag4
aI0
aF9.9746711254119873
aF0.27000000000000002
aF-0.82999999999999996
aF-0.33000000000000002
aI1645
aI3527
aI-6116
aF-85.560000000000002
aF844.55999999999995
aF-105.8
aa(lp85
g3
ag4
aI0
aF10.146281003952026
aF0.31
aF-0.87
aF-0.32000000000000001
aI65
aI-179
aI-4960
aF-126.95999999999999
aF806.84000000000003
aF-120.52
aa(lp86
g3
ag4
aI0
aF10.246819972991943
aF0.40000000000000002
aF-0.94999999999999996
aF-0.29999999999999999
aI3199
aI56
aI-4232
aF-154.56
aF777.39999999999998
aF-130.63999999999999
aa(lp87
g3
ag4
aI0
aF10.345628976821899
aF0.44
aF-0.96999999999999997
aF-0.28999999999999998
aI1502
aI1533
aI-2609
aF-171.12
aF759.91999999999996
aF-130.63999999999999
aa(lp88
g3
ag4
aI0
aF10.470977067947388
aF0.48999999999999999
aF-0.97999999999999998
aF-0.28999999999999998
aI759
aI-451
aI-1362
aF-180.31999999999999
aF743.36000000000001
aF-136.16
aa(lp89
g3
ag4
aI0
aF10.588663101196289
aF0.5
aF-1
aF-0.27000000000000002
aI-106
aI208
aI-1969
aF-185.84
aF738.75999999999999
aF-134.31999999999999
aa(lp90
g3
ag4
aI0
aF10.746969938278198
aF0.55000000000000004
aF-0.97999999999999998
aF-0.25
aI1042
aI1266
aI-567
aF-193.19999999999999
aF725.88
aF-126.95999999999999
aa(lp91
g3
ag4
aI0
aF10.846570014953613
aF0.59999999999999998
aF-1.02
aF-0.20999999999999999
aI2201
aI-3652
aI2242
aF-191.36000000000001
aF724.96000000000004
aF-131.56
aa(lp92
g3
ag4
aI0
aF10.967698097229004
aF0.59999999999999998
aF-1.1000000000000001
aF-0.22
aI-35
aI869
aI784
aF-184
aF738.75999999999999
aF-126.95999999999999
aa(lp93
g3
ag4
aI0
aF11.079946041107178
aF0.59999999999999998
aF-1.1899999999999999
aF-0.23000000000000001
aI1662
aI2450
aI95
aF-188.59999999999999
aF736.91999999999996
aF-152.72
aa(lp94
g3
ag4
aI0
aF11.246942043304443
aF0.54000000000000004
aF-1.1200000000000001
aF-0.20000000000000001
aI1571
aI-576
aI3070
aF-188.59999999999999
aF748.88
aF-168.36000000000001
aa(lp95
g3
ag4
aI0
aF11.345904111862183
aF0.39000000000000001
aF-0.94999999999999996
aF-0.19
aI-9
aI-1494
aI6979
aF-173.88
aF765.44000000000005
aF-172.96000000000001
aa(lp96
g3
ag4
aI0
aF11.470021963119507
aF0.34999999999999998
aF-0.92000000000000004
aF-0.23000000000000001
aI-926
aI-1879
aI6936
aF-142.59999999999999
aF803.15999999999997
aF-167.44
aa(lp97
g3
ag4
aI0
aF11.607640027999878
aF0.26000000000000001
aF-0.84999999999999998
aF-0.19
aI-1641
aI-3794
aI5919
aF-92
aF851
aF-141.68000000000001
aa(lp98
g3
ag4
aI0
aF11.746770143508911
aF0.28999999999999998
aF-0.81999999999999995
aF-0.19
aI-1991
aI2024
aI-1171
aF-49.68
aF872.15999999999997
aF-114.08
aa(lp99
g3
ag4
aI0
aF11.847520112991333
aF0.33000000000000002
aF-0.83999999999999997
aF-0.25
aI-31
aI-668
aI-5862
aF-76.359999999999999
aF852.84000000000003
aF-114.08
aa(lp100
g3
ag4
aI0
aF11.968825101852417
aF0.38
aF-0.83999999999999997
aF-0.26000000000000001
aI1882
aI1695
aI-7258
aF-125.12
aF813.27999999999997
aF-133.40000000000001
aa(lp101
g3
ag4
aI0
aF12.14620304107666
aF0.48999999999999999
aF-0.93000000000000005
aF-0.19
aI3050
aI1163
aI-4880
aF-167.44
aF776.48000000000002
aF-157.31999999999999
aa(lp102
g3
ag4
aI0
aF12.245911121368408
aF0.44
aF-0.95999999999999996
aF-0.16
aI2541
aI-3433
aI-322
aF-177.56
aF757.15999999999997
aF-149.03999999999999
aa(lp103
g3
ag4
aI0
aF12.363599061965942
aF0.45000000000000001
aF-0.98999999999999999
aF-0.16
aI1283
aI-2773
aI870
aF-179.40000000000001
aF753.48000000000002
aF-151.80000000000001
aa(lp104
g3
ag4
aI0
aF12.478904962539673
aF0.47999999999999998
aF-0.98999999999999999
aF-0.17000000000000001
aI-330
aI-860
aI325
aF-179.40000000000001
aF756.24000000000001
aF-140.75999999999999
aa(lp105
g3
ag4
aI0
aF12.645956993103027
aF0.44
aF-1.01
aF-0.20000000000000001
aI-1823
aI-1300
aI1068
aF-170.19999999999999
aF759.91999999999996
aF-126.95999999999999
aa(lp106
g3
ag4
aI0
aF12.74722695350647
aF0.42999999999999999
aF-1
aF-0.25
aI-2584
aI657
aI828
aF-167.44
aF758.08000000000004
aF-114.08
aa(lp107
g3
ag4
aI0
aF12.849946975708008
aF0.46000000000000002
aF-1.04
aF-0.29999999999999999
aI-1826
aI-271
aI576
aF-160.08000000000001
aF763.60000000000002
aF-99.359999999999999
aa(lp108
g3
ag4
aI0
aF12.968794107437134
aF0.53000000000000003
aF-1.1699999999999999
aF-0.32000000000000001
aI918
aI1010
aI201
aF-153.63999999999999
aF768.20000000000005
aF-97.519999999999996
aa(lp109
g3
ag4
aI0
aF13.146501064300537
aF0.54000000000000004
aF-1.27
aF-0.29999999999999999
aI747
aI3290
aI-2446
aF-165.59999999999999
aF762.67999999999995
aF-116.84
aa(lp110
g3
ag4
aI0
aF13.246567964553833
aF0.48999999999999999
aF-1.1299999999999999
aF-0.28000000000000003
aI-1386
aI2555
aI240
aF-172.96000000000001
aF757.15999999999997
aF-131.56
aa(lp111
g3
ag4
aI0
aF13.34642505645752
aF0.39000000000000001
aF-0.95999999999999996
aF-0.23000000000000001
aI649
aI-1887
aI6401
aF-168.36000000000001
aF772.79999999999995
aF-144.44
aa(lp112
g3
ag4
aI0
aF13.455299139022827
aF0.28000000000000003
aF-0.83999999999999997
aF-0.23000000000000001
aI-2377
aI-859
aI6847
aF-127.88
aF812.36000000000001
aF-138.91999999999999
aa(lp113
g3
ag4
aI0
aF13.607562065124512
aF0.27000000000000002
aF-0.78000000000000003
aF-0.23000000000000001
aI-1133
aI141
aI2114
aF-80.959999999999994
aF850.08000000000004
aF-106.72
aa(lp114
g3
ag4
aI0
aF13.74676513671875
aF0.29999999999999999
aF-0.84999999999999998
aF-0.25
aI-253
aI1779
aI-1312
aF-66.239999999999995
aF859.27999999999997
aF-102.12
aa(lp115
g3
ag4
aI0
aF13.848538160324097
aF0.28999999999999998
aF-0.90000000000000002
aF-0.28999999999999998
aI776
aI-1174
aI-360
aF-75.439999999999998
aF853.75999999999999
aF-99.359999999999999
aa(lp116
g3
ag4
aI0
aF13.975135087966919
aF0.20999999999999999
aF-0.87
aF-0.31
aI610
aI-1781
aI-211
aF-75.439999999999998
aF848.24000000000001
aF-92
aa(lp117
g3
ag4
aI0
aF14.146461009979248
aF0.17000000000000001
aF-0.87
aF-0.32000000000000001
aI2113
aI-619
aI-2166
aF-80.959999999999994
aF842.72000000000003
aF-95.680000000000007
aa(lp118
g3
ag4
aI0
aF14.246801137924194
aF0.16
aF-0.88
aF-0.31
aI2292
aI-1476
aI-2665
aF-113.16
aF820.63999999999999
aF-103.04000000000001
aa(lp119
g3
ag4
aI0
aF14.346549987792969
aF0.25
aF-0.96999999999999997
aF-0.32000000000000001
aI1092
aI764
aI-3425
aF-139.84
aF791.20000000000005
aF-110.40000000000001
aa(lp120
g3
ag4
aI0
aF14.463735103607178
aF0.40000000000000002
aF-1.04
aF-0.29999999999999999
aI-377
aI3008
aI-3707
aF-156.40000000000001
aF774.63999999999999
aF-119.59999999999999
aa(lp121
g3
ag4
aI0
aF14.583397150039673
aF0.46999999999999997
aF-1.01
aF-0.27000000000000002
aI1164
aI859
aI-1198
aF-169.28
aF765.44000000000005
aF-126.04000000000001
aa(lp122
g3
ag4
aI0
aF14.746978044509888
aF0.53000000000000003
aF-1.03
aF-0.20999999999999999
aI-77
aI-1009
aI-1470
aF-168.36000000000001
aF759.91999999999996
aF-124.2
aa(lp123
g3
ag4
aI0
aF14.848603963851929
aF0.52000000000000002
aF-1.04
aF-0.19
aI398
aI-1368
aI907
aF-164.68000000000001
aF757.15999999999997
aF-108.56
aa(lp124
g3
ag4
aI0
aF14.969942092895508
aF0.55000000000000004
aF-1.0800000000000001
aF-0.26000000000000001
aI-1428
aI-950
aI-393
aF-159.16
aF759.91999999999996
aF-96.599999999999994
aa(lp125
g3
ag4
aI0
aF15.146466970443726
aF0.56999999999999995
aF-1.1599999999999999
aF-0.29999999999999999
aI-214
aI4659
aI-2009
aF-161.91999999999999
aF759.91999999999996
aF-95.680000000000007
aa(lp126
g3
ag4
aI0
aF15.246742963790894
aF0.56000000000000005
aF-1.1699999999999999
aF-0.31
aI813
aI3940
aI-828
aF-179.40000000000001
aF745.20000000000005
aF-128.80000000000001
aa(lp127
g3
ag4
aI0
aF15.346601009368896
aF0.45000000000000001
aF-1.04
aF-0.27000000000000002
aI-1548
aI2871
aI2494
aF-175.72
aF755.32000000000005
aF-138
aa(lp128
g3
ag4
aI0
aF15.460958003997803
aF0.39000000000000001
aF-0.96999999999999997
aF-0.23000000000000001
aI94
aI-2480
aI7187
aF-151.80000000000001
aF782.91999999999996
aF-131.56
aa(lp129
g3
ag4
aI0
aF15.578487157821655
aF0.28000000000000003
aF-0.81999999999999995
aF-0.23000000000000001
aI-1743
aI-3465
aI7600
aF-96.599999999999994
aF829.84000000000003
aF-104.88
aa(lp130
g3
ag4
aI0
aF15.746840000152588
aF0.28000000000000003
aF-0.76000000000000001
aF-0.22
aI-656
aI2252
aI-76
aF-70.840000000000003
aF845.48000000000002
aF-88.319999999999993
aa(lp131
g3
ag4
aI0
aF15.848325967788696
aF0.27000000000000002
aF-0.80000000000000004
aF-0.28000000000000003
aI-1279
aI-1944
aI-1233
aF-76.359999999999999
aF839.96000000000004
aF-80.040000000000006
aa(lp132
g3
ag4
aI0
aF15.962448120117188
aF0.27000000000000002
aF-0.79000000000000004
aF-0.32000000000000001
aI-80
aI146
aI-4532
aF-81.879999999999995
aF833.51999999999998
aF-77.280000000000001
aa(lp133
g3
ag4
aI0
aF16.09364914894104
aF0.28000000000000003
aF-0.87
aF-0.32000000000000001
aI1992
aI-3741
aI-2494
aF-106.72
aF810.51999999999998
aF-73.599999999999994
aa(lp134
g3
ag4
aI0
aF16.246870040893555
aF0.28000000000000003
aF-0.93999999999999995
aF-0.34000000000000002
aI-935
aI1525
aI-2368
aF-122.36
aF789.36000000000001
aF-68.079999999999998
aa(lp135
g3
ag4
aI0
aF16.353714942932129
aF0.34000000000000002
aF-0.91000000000000003
aF-0.34000000000000002
aI149
aI1555
aI-1939
aF-146.28
aF761.75999999999999
aF-69.920000000000002
aa(lp136
g3
ag4
aI0
aF16.446119070053101
aF0.41999999999999998
aF-0.96999999999999997
aF-0.34000000000000002
aI2014
aI-2233
aI1311
aF-161
aF757.15999999999997
aF-81.879999999999995
aa(lp137
g3
ag4
aI0
aF16.591155052185059
aF0.40000000000000002
aF-1.02
aF-0.32000000000000001
aI654
aI-2980
aI1544
aF-144.44
aF765.44000000000005
aF-70.840000000000003
aa(lp138
g3
ag4
aI0
aF16.745710134506226
aF0.39000000000000001
aF-1.04
aF-0.29999999999999999
aI-10
aI-3000
aI874
aF-138.91999999999999
aF763.60000000000002
aF-59.799999999999997
aa(lp139
g3
ag4
aI0
aF16.84762716293335
aF0.46000000000000002
aF-1.1399999999999999
aF-0.35999999999999999
aI-947
aI1128
aI-710
aF-140.75999999999999
aF759
aF-57.039999999999999
aa(lp140
g3
ag4
aI0
aF16.946664094924927
aF0.52000000000000002
aF-1.1599999999999999
aF-0.40000000000000002
aI1148
aI4191
aI-769
aF-151.80000000000001
aF755.32000000000005
aF-73.599999999999994
aa(lp141
g3
ag4
aI0
aF17.08718204498291
aF0.46999999999999997
aF-1.1499999999999999
aF-0.40000000000000002
aI754
aI3297
aI-1415
aF-158.24000000000001
aF763.60000000000002
aF-105.8
aa(lp142
g3
ag4
aI0
aF17.246674060821533
aF0.46999999999999997
aF-1.0800000000000001
aF-0.26000000000000001
aI-1199
aI3724
aI-2
aF-161.91999999999999
aF767.27999999999997
aF-120.52
aa(lp143
g3
ag4
aI0
aF17.345499038696289
aF0.40999999999999998
aF-0.93999999999999995
aF-0.26000000000000001
aI-3734
aI-3510
aI6863
aF-147.19999999999999
aF791.20000000000005
aF-123.28
aa(lp144
g3
ag4
aI0
aF17.452501058578491
aF0.28000000000000003
aF-0.75
aF-0.28000000000000003
aI-4448
aI-2456
aI6044
aF-94.760000000000005
aF828
aF-91.079999999999998
aa(lp145
g3
ag4
aI0
aF17.577401161193848
aF0.28000000000000003
aF-0.72999999999999998
aF-0.28000000000000003
aI2116
aI-139
aI-1565
aF-81.879999999999995
aF839.03999999999996
aF-82.799999999999997
aa(lp146
g3
ag4
aI0
aF17.746565103530884
aF0.27000000000000002
aF-0.79000000000000004
aF-0.32000000000000001
aI1063
aI-1371
aI-2310
aF-89.239999999999995
aF828.91999999999996
aF-80.959999999999994
aa(lp147
g3
ag4
aI0
aF17.846248149871826
aF0.26000000000000001
aF-0.82999999999999996
aF-0.34000000000000002
aI1879
aI208
aI-3118
aF-108.56
aF810.51999999999998
aF-79.120000000000005
aa(lp148
g3
ag4
aI0
aF17.964897155761719
aF0.27000000000000002
aF-0.85999999999999999
aF-0.34000000000000002
aI2061
aI-1813
aI-2403
aF-136.16
aF786.60000000000002
aF-92
aa(lp149
g3
ag4
aI0
aF18.080142974853516
aF0.34999999999999998
aF-0.93000000000000005
aF-0.32000000000000001
aI1069
aI-328
aI-2171
aF-149.03999999999999
aF772.79999999999995
aF-92
aa(lp150
g3
ag4
aI0
aF18.246837139129639
aF0.38
aF-0.95999999999999996
aF-0.28000000000000003
aI-140
aI-1515
aI-462
aF-155.47999999999999
aF759
aF-90.159999999999997
aa(lp151
g3
ag4
aI0
aF18.346482038497925
aF0.37
aF-0.93000000000000005
aF-0.27000000000000002
aI128
aI-2555
aI863
aF-154.56
aF756.24000000000001
aF-78.200000000000003
aa(lp152
g3
ag4
aI0
aF18.448480129241943
aF0.41999999999999998
aF-0.98999999999999999
aF-0.31
aI-92
aI659
aI1264
aF-149.96000000000001
aF759.91999999999996
aF-72.680000000000007
aa(lp153
g3
ag4
aI0
aF18.581022977828979
aF0.48999999999999999
aF-1.0900000000000001
aF-0.34000000000000002
aI-1035
aI1184
aI1651
aF-146.28
aF765.44000000000005
aF-80.959999999999994
aa(lp154
g3
ag4
aI0
aF18.746860027313232
aF0.46000000000000002
aF-1.1299999999999999
aF-0.34999999999999998
aI-590
aI1305
aI548
aF-134.31999999999999
aF779.24000000000001
aF-71.760000000000005
aa(lp155
g3
ag4
aI0
aF18.846236944198608
aF0.46000000000000002
aF-1.28
aF-0.38
aI155
aI3154
aI-3197
aF-135.24000000000001
aF772.79999999999995
aF-69.920000000000002
aa(lp156
g3
ag4
aI0
aF18.946710109710693
aF0.42999999999999999
aF-1.1799999999999999
aF-0.35999999999999999
aI883
aI4075
aI-1262
aF-166.52000000000001
aF753.48000000000002
aF-107.64
aa(lp157
g3
ag4
aI0
aF19.066125154495239
aF0.33000000000000002
aF-1.01
aF-0.34000000000000002
aI839
aI-1767
aI6170
aF-161
aF770.03999999999996
aF-123.28
aa(lp158
g3
ag4
aI0
aF19.189955949783325
aF0.26000000000000001
aF-0.78000000000000003
aF-0.28000000000000003
aI-4525
aI-5
aI4564
aF-121.44
aF811.44000000000005
aF-101.2
aa(lp159
g3
ag4
aI0
aF19.346235990524292
aF0.31
aF-0.73999999999999999
aF-0.26000000000000001
aI-412
aI-136
aI2074
aF-89.239999999999995
aF832.60000000000002
aF-83.719999999999999
aa(lp160
g3
ag4
aI0
aF19.44558310508728
aF0.32000000000000001
aF-0.69999999999999996
aF-0.28999999999999998
aI1139
aI869
aI-4678
aF-82.799999999999997
aF827.08000000000004
aF-71.760000000000005
aa(lp161
g3
ag4
aI0
aF19.561093091964722
aF0.39000000000000001
aF-0.71999999999999997
aF-0.31
aI4303
aI4511
aI-9035
aF-113.16
aF809.60000000000002
aF-78.200000000000003
aa(lp162
g3
ag4
aI0
aF19.712422132492065
aF0.47999999999999998
aF-0.83999999999999997
aF-0.28999999999999998
aI1923
aI-964
aI-5304
aF-157.31999999999999
aF762.67999999999995
aF-103.04000000000001
aa(lp163
g3
ag4
aI0
aF19.846606969833374
aF0.46000000000000002
aF-0.90000000000000002
aF-0.29999999999999999
aI-2177
aI3665
aI-3050
aF-179.40000000000001
aF731.39999999999998
aF-93.840000000000003
aa(lp164
g3
ag4
aI0
aF19.946712970733643
aF0.55000000000000004
aF-1.02
aF-0.34999999999999998
aI-228
aI2352
aI1098
aF-192.28
aF723.12
aF-113.16
aa(lp165
g3
ag4
aI0
aF20.052512168884277
aF0.51000000000000001
aF-1.04
aF-0.33000000000000002
aI-713
aI946
aI2661
aF-175.72
aF747.96000000000004
aF-117.76000000000001
aa(lp166
g3
ag4
aI0
aF20.18975305557251
aF0.46999999999999997
aF-1.04
aF-0.28000000000000003
aI-914
aI2594
aI351
aF-172.96000000000001
aF759
aF-125.12
aa(lp167
g3
ag4
aI0
aF20.346771955490112
aF0.45000000000000001
aF-1
aF-0.23999999999999999
aI945
aI263
aI746
aF-175.72
aF754.39999999999998
aF-129.72
aa(lp168
g3
ag4
aI0
aF20.449921131134033
aF0.44
aF-0.96999999999999997
aF-0.23000000000000001
aI1966
aI-3445
aI1687
aF-177.56
aF755.32000000000005
aF-138
aa(lp169
g3
ag4
aI0
aF20.573500156402588
aF0.46000000000000002
aF-0.97999999999999998
aF-0.23999999999999999
aI817
aI-695
aI954
aF-173.88
aF757.15999999999997
aF-134.31999999999999
aa(lp170
g3
ag4
aI0
aF20.745682954788208
aF0.45000000000000001
aF-0.97999999999999998
aF-0.26000000000000001
aI-148
aI1184
aI412
aF-164.68000000000001
aF767.27999999999997
aF-131.56
aa(lp171
g3
ag4
aI0
aF20.846610069274902
aF0.47999999999999998
aF-0.98999999999999999
aF-0.27000000000000002
aI-1071
aI2287
aI-39
aF-161.91999999999999
aF771.88
aF-138.91999999999999
aa(lp172
g3
ag4
aI0
aF20.945670127868652
aF0.46000000000000002
aF-0.97999999999999998
aF-0.27000000000000002
aI-580
aI1557
aI110
aF-158.24000000000001
aF781.08000000000004
aF-138.91999999999999
aa(lp173
g3
ag4
aI0
aF21.045607089996338
aF0.40999999999999998
aF-0.96999999999999997
aF-0.25
aI430
aI-6
aI779
aF-157.31999999999999
aF785.67999999999995
aF-138.91999999999999
aa(lp174
g3
ag4
aI0
aF21.172357082366943
aF0.40999999999999998
aF-0.95999999999999996
aF-0.23999999999999999
aI-442
aI848
aI-117
aF-153.63999999999999
aF788.44000000000005
aF-141.68000000000001
aa(lp175
g3
ag4
aI0
aF21.346795082092285
aF0.42999999999999999
aF-0.97999999999999998
aF-0.23999999999999999
aI-10
aI-92
aI440
aF-153.63999999999999
aF788.44000000000005
aF-142.59999999999999
aa(lp176
g3
ag4
aI0
aF21.44585394859314
aF0.40999999999999998
aF-0.97999999999999998
aF-0.26000000000000001
aI-103
aI-218
aI806
aF-150.88
aF787.51999999999998
aF-134.31999999999999
aa(lp177
g3
ag4
aI0
aF21.551290988922119
aF0.40999999999999998
aF-0.97999999999999998
aF-0.28999999999999998
aI-698
aI939
aI285
aF-149.03999999999999
aF792.12
aF-138.91999999999999
aa(lp178
g3
ag4
aI0
aF21.672606945037842
aF0.40999999999999998
aF-0.97999999999999998
aF-0.29999999999999999
aI-189
aI473
aI157
aF-142.59999999999999
aF795.79999999999995
aF-133.40000000000001
aa(lp179
g3
ag4
aI0
aF21.846796989440918
aF0.39000000000000001
aF-0.97999999999999998
aF-0.28000000000000003
aI682
aI-573
aI439
aF-142.59999999999999
aF793.96000000000004
aF-132.47999999999999
aa(lp180
g3
ag4
aI0
aF21.946802139282227
aF0.35999999999999999
aF-0.97999999999999998
aF-0.28999999999999998
aI529
aI-867
aI246
aF-141.68000000000001
aF793.96000000000004
aF-131.56
aa(lp181
g3
ag4
aI0
aF22.04567813873291
aF0.37
aF-0.96999999999999997
aF-0.29999999999999999
aI-495
aI141
aI-437
aF-144.44
aF793.03999999999996
aF-129.72
aa(lp182
g3
ag4
aI0
aF22.16376805305481
aF0.37
aF-0.96999999999999997
aF-0.28999999999999998
aI-138
aI1582
aI-244
aF-144.44
aF791.20000000000005
aF-132.47999999999999
aa(lp183
g3
ag4
aI0
aF22.303941965103149
aF0.39000000000000001
aF-0.97999999999999998
aF-0.28999999999999998
aI79
aI141
aI-438
aF-149.03999999999999
aF790.27999999999997
aF-143.52000000000001
aa(lp184
g3
ag4
aI0
aF22.446645975112915
aF0.39000000000000001
aF-0.96999999999999997
aF-0.28000000000000003
aI232
aI365
aI-564
aF-153.63999999999999
aF786.60000000000002
aF-141.68000000000001
aa(lp185
g3
ag4
aI0
aF22.546527147293091
aF0.40999999999999998
aF-0.97999999999999998
aF-0.27000000000000002
aI638
aI234
aI-592
aF-156.40000000000001
aF783.84000000000003
aF-147.19999999999999
aa(lp186
g3
ag4
aI0
aF22.653696060180664
aF0.42999999999999999
aF-0.96999999999999997
aF-0.27000000000000002
aI102
aI-1072
aI-744
aF-161.91999999999999
aF781.08000000000004
aF-146.28
aa(lp187
g3
ag4
aI0
aF22.793766975402832
aF0.45000000000000001
aF-0.95999999999999996
aF-0.28000000000000003
aI-285
aI303
aI-281
aF-164.68000000000001
aF772.79999999999995
aF-142.59999999999999
aa(lp188
g3
ag4
aI0
aF22.946738958358765
aF0.46000000000000002
aF-0.96999999999999997
aF-0.28999999999999998
aI301
aI59
aI274
aF-163.75999999999999
aF772.79999999999995
aF-146.28
aa(lp189
g3
ag4
aI0
aF23.046324968338013
aF0.44
aF-0.95999999999999996
aF-0.28999999999999998
aI596
aI-312
aI-2
aF-163.75999999999999
aF770.03999999999996
aF-143.52000000000001
aa(lp190
g3
ag4
aI0
aF23.146435976028442
aF0.45000000000000001
aF-0.94999999999999996
aF-0.28999999999999998
aI121
aI83
aI-528
aF-166.52000000000001
aF771.88
aF-142.59999999999999
aa(lp191
g3
ag4
aI0
aF23.291368007659912
aF0.46999999999999997
aF-0.96999999999999997
aF-0.28000000000000003
aI167
aI1122
aI-455
aF-168.36000000000001
aF770.96000000000004
aF-142.59999999999999
aa(lp192
g3
ag4
aI0
aF23.446552038192749
aF0.46999999999999997
aF-0.95999999999999996
aF-0.27000000000000002
aI768
aI-461
aI227
aF-169.28
aF769.12
aF-147.19999999999999
aa(lp193
g3
ag4
aI0
aF23.546334028244019
aF0.44
aF-0.93999999999999995
aF-0.25
aI304
aI-118
aI439
aF-166.52000000000001
aF769.12
aF-148.12
aa(lp194
g3
ag4
aI0
aF23.65513801574707
aF0.42999999999999999
aF-0.95999999999999996
aF-0.25
aI70
aI142
aI381
aF-167.44
aF770.96000000000004
aF-150.88
aa(lp195
g3
ag4
aI0
aF23.77369213104248
aF0.44
aF-0.96999999999999997
aF-0.25
aI-572
aI673
aI-246
aF-165.59999999999999
aF771.88
aF-150.88
aa(lp196
g3
ag4
aI0
aF23.946650981903076
aF0.46000000000000002
aF-0.94999999999999996
aF-0.26000000000000001
aI-333
aI1424
aI-183
aF-169.28
aF771.88
aF-155.47999999999999
aa(lp197
g3
ag4
aI0
aF24.045699119567871
aF0.46999999999999997
aF-0.95999999999999996
aF-0.26000000000000001
aI-42
aI-602
aI303
aF-169.28
aF771.88
aF-153.63999999999999
aa(lp198
g3
ag4
aI0
aF24.145663022994995
aF0.46999999999999997
aF-0.95999999999999996
aF-0.26000000000000001
aI-9
aI-286
aI314
aF-164.68000000000001
aF769.12
aF-152.72
aa(lp199
g3
ag4
aI0
aF24.263674974441528
aF0.46999999999999997
aF-0.94999999999999996
aF-0.27000000000000002
aI-65
aI-25
aI377
aF-166.52000000000001
aF775.55999999999995
aF-152.72
aa(lp200
g3
ag4
aI0
aF24.374957084655762
aF0.46000000000000002
aF-0.95999999999999996
aF-0.28000000000000003
aI86
aI96
aI552
aF-163.75999999999999
aF775.55999999999995
aF-151.80000000000001
aa(lp201
g3
ag4
aI0
aF24.546488046646118
aF0.44
aF-0.95999999999999996
aF-0.28000000000000003
aI473
aI-469
aI538
aF-157.31999999999999
aF779.24000000000001
aF-152.72
aa(lp202
g3
ag4
aI0
aF24.646738052368164
aF0.41999999999999998
aF-0.95999999999999996
aF-0.27000000000000002
aI334
aI-51
aI200
aF-156.40000000000001
aF783.84000000000003
aF-150.88
aa(lp203
g3
ag4
aI0
aF24.74674916267395
aF0.40999999999999998
aF-0.96999999999999997
aF-0.28000000000000003
aI145
aI430
aI-176
aF-157.31999999999999
aF783.84000000000003
aF-153.63999999999999
aa(lp204
g3
ag4
aI0
aF24.859987020492554
aF0.42999999999999999
aF-0.97999999999999998
aF-0.27000000000000002
aI-4
aI1222
aI-303
aF-160.08000000000001
aF786.60000000000002
aF-154.56
aa(lp205
g3
ag4
aI0
aF24.978723049163818
aF0.44
aF-0.96999999999999997
aF-0.26000000000000001
aI-51
aI545
aI-86
aF-161.91999999999999
aF784.75999999999999
aF-161.91999999999999
aa(lp206
g3
ag4
aI0
aF25.146332979202271
aF0.45000000000000001
aF-0.95999999999999996
aF-0.26000000000000001
aI250
aI-227
aI166
aF-161.91999999999999
aF784.75999999999999
aF-161
aa.