(lp1
(lp2
S'Morgan'
p3
aS'bicep curls'
p4
aI0
aF9.5367431640625e-07
aI0
aI0
aI0
aI0
aI0
aI0
aI0
aI0
aI0
aa(lp5
g3
ag4
aI0
aF0.15808296203613281
aF-0.17999999999999999
aF0.88
aF-0.14999999999999999
aI75
aI328
aI-72
aF192.28
aF-207
aF244.72
aa(lp6
g3
ag4
aI0
aF0.23763704299926758
aF-0.17999999999999999
aF0.88
aF-0.14000000000000001
aI138
aI151
aI-23
aF195.96000000000001
aF-206.08000000000001
aF245.63999999999999
aa(lp7
g3
ag4
aI0
aF0.35152101516723633
aF-0.17999999999999999
aF0.88
aF-0.14999999999999999
aI107
aI256
aI67
aF194.12
aF-206.08000000000001
aF244.72
aa(lp8
g3
ag4
aI0
aF0.46291303634643555
aF-0.17999999999999999
aF0.88
aF-0.14999999999999999
aI140
aI104
aI13
aF195.96000000000001
aF-207
aF245.63999999999999
aa(lp9
g3
ag4
aI0
aF0.59406900405883789
aF-0.17999999999999999
aF0.88
aF-0.14000000000000001
aI42
aI128
aI-85
aF192.28
aF-208.84
aF244.72
aa(lp10
g3
ag4
aI0
aF0.73773002624511719
aF-0.17999999999999999
aF0.88
aF-0.14999999999999999
aI-77
aI255
aI42
aF194.12
aF-206.08000000000001
aF244.72
aa(lp11
g3
ag4
aI0
aF0.83788394927978516
aF-0.17999999999999999
aF0.88
aF-0.14999999999999999
aI33
aI389
aI88
aF189.52000000000001
aF-207.91999999999999
aF241.96000000000001
aa(lp12
g3
ag4
aI0
aF0.94781398773193359
aF-0.17999999999999999
aF0.88
aF-0.14999999999999999
aI348
aI227
aI-311
aF191.36000000000001
aF-208.84
aF241.03999999999999
aa(lp13
g3
ag4
aI0
aF1.0941009521484375
aF-0.25
aF0.88
aF-0.17999999999999999
aI1739
aI-961
aI-2767
aF202.40000000000001
aF-205.16
aF245.63999999999999
aa(lp14
g3
ag4
aI0
aF1.2377660274505615
aF-0.34000000000000002
aF0.87
aF-0.20000000000000001
aI4156
aI-3129
aI-7823
aF246.56
aF-194.12
aF263.12
aa(lp15
g3
ag4
aI0
aF1.3417069911956787
aF-0.5
aF0.81999999999999995
aF-0.22
aI5715
aI-4811
aI-14393
aF351.44
aF-142.59999999999999
aF285.19999999999999
aa(lp16
g3
ag4
aI0
aF1.4653260707855225
aF-0.68000000000000005
aF0.69999999999999996
aF-0.20999999999999999
aI4457
aI-5898
aI-19538
aF483
aF-29.440000000000001
aF284.27999999999997
aa(lp17
g3
ag4
aI0
aF1.5877809524536133
aF-0.80000000000000004
aF0.44
aF-0.14000000000000001
aI923
aI-6711
aI-20582
aF574.08000000000004
aF131.56
aF248.40000000000001
aa(lp18
g3
ag4
aI0
aF1.7380180358886719
aF-0.78000000000000003
aF0.17000000000000001
aF-0.089999999999999997
aI-2490
aI-6731
aI-18562
aF596.15999999999997
aF213.44
aF216.19999999999999
aa(lp19
g3
ag4
aI0
aF1.8379108905792236
aF-0.71999999999999997
aF-0.14999999999999999
aF-0.02
aI-3760
aI-6213
aI-13638
aF594.32000000000005
aF352.36000000000001
aF165.59999999999999
aa(lp20
g3
ag4
aI0
aF1.9801740646362305
aF-0.55000000000000004
aF-0.40999999999999998
aF0.029999999999999999
aI-4238
aI-3364
aI-9727
aF566.72000000000003
aF439.75999999999999
aF135.24000000000001
aa(lp21
g3
ag4
aI0
aF2.1380128860473633
aF-0.40999999999999998
aF-0.56000000000000005
aF0.01
aI-1654
aI-1755
aI-2893
aF533.60000000000002
aF487.60000000000002
aF130.63999999999999
aa(lp22
g3
ag4
aI0
aF2.2367589473724365
aF-0.38
aF-0.62
aF0.040000000000000001
aI3367
aI3438
aI9204
aF539.12
aF479.31999999999999
aF129.72
aa(lp23
g3
ag4
aI0
aF2.3480889797210693
aF-0.51000000000000001
aF-0.55000000000000004
aF0.13
aI3849
aI2619
aI15148
aF588.79999999999995
aF391.92000000000002
aF146.28
aa(lp24
g3
ag4
aI0
aF2.4628241062164307
aF-0.57999999999999996
aF-0.39000000000000001
aF0.11
aI3361
aI6174
aI18195
aF618.24000000000001
aF248.40000000000001
aF177.56
aa(lp25
g3
ag4
aI0
aF2.5865039825439453
aF-0.71999999999999997
aF-0.12
aF0.050000000000000003
aI2945
aI4638
aI19339
aF606.27999999999997
aF91.079999999999998
aF206.08000000000001
aa(lp26
g3
ag4
aI0
aF2.7378048896789551
aF-0.81000000000000005
aF0.19
aF0.02
aI235
aI6231
aI17373
aF579.60000000000002
aF20.239999999999998
aF219.88
aa(lp27
g3
ag4
aI0
aF2.8372509479522705
aF-0.73999999999999999
aF0.46000000000000002
aF-0.070000000000000007
aI-1635
aI4796
aI16072
aF469.19999999999999
aF-98.439999999999998
aF255.75999999999999
aa(lp28
g3
ag4
aI0
aF2.9729390144348145
aF-0.62
aF0.65000000000000002
aF-0.12
aI-2290
aI6795
aI11527
aF351.44
aF-174.80000000000001
aF266.80000000000001
aa(lp29
g3
ag4
aI0
aF3.136868953704834
aF-0.5
aF0.76000000000000001
aF-0.14999999999999999
aI-1101
aI1563
aI6951
aF243.80000000000001
aF-199.63999999999999
aF259.44
aa(lp30
g3
ag4
aI0
aF3.2366969585418701
aF-0.40999999999999998
aF0.81999999999999995
aF-0.16
aI18
aI864
aI1881
aF196.88
aF-203.31999999999999
aF258.51999999999998
aa(lp31
g3
ag4
aI0
aF3.3373720645904541
aF-0.40000000000000002
aF0.85999999999999999
aF-0.19
aI2034
aI-2033
aI-5701
aF212.52000000000001
aF-199.63999999999999
aF263.12
aa(lp32
g3
ag4
aI0
aF3.4651999473571777
aF-0.48999999999999999
aF0.88
aF-0.20000000000000001
aI4354
aI-6250
aI-16555
aF328.44
aF-165.59999999999999
aF278.75999999999999
aa(lp33
g3
ag4
aI0
aF3.5791409015655518
aF-0.62
aF0.77000000000000002
aF-0.20000000000000001
aI3860
aI-5890
aI-21539
aF412.16000000000003
aF-124.2
aF278.75999999999999
aa(lp34
g3
ag4
aI0
aF3.7374229431152344
aF-0.73999999999999999
aF0.53000000000000003
aF-0.14999999999999999
aI743
aI-4559
aI-22238
aF548.32000000000005
aF27.600000000000001
aF257.60000000000002
aa(lp35
g3
ag4
aI0
aF3.8379960060119629
aF-0.72999999999999998
aF0.20999999999999999
aF-0.070000000000000007
aI-2158
aI-5012
aI-18748
aF604.44000000000005
aF203.31999999999999
aF212.52000000000001
aa(lp36
g3
ag4
aI0
aF3.9553549289703369
aF-0.68000000000000005
aF-0.11
aF0
aI-3000
aI-5448
aI-14707
aF591.55999999999995
aF354.19999999999999
aF172.96000000000001
aa(lp37
g3
ag4
aI0
aF4.1090378761291504
aF-0.62
aF-0.38
aF0.050000000000000003
aI-3976
aI-4552
aI-10504
aF555.67999999999995
aF452.63999999999999
aF138.91999999999999
aa(lp38
g3
ag4
aI0
aF4.2378420829772949
aF-0.44
aF-0.56999999999999995
aF0.040000000000000001
aI-1395
aI-516
aI-2328
aF523.48000000000002
aF495.88
aF134.31999999999999
aa(lp39
g3
ag4
aI0
aF4.3506429195404053
aF-0.39000000000000001
aF-0.63
aF0.050000000000000003
aI1796
aI2917
aI7777
aF529.91999999999996
aF486.68000000000001
aF141.68000000000001
aa(lp40
g3
ag4
aI0
aF4.4667758941650391
aF-0.46000000000000002
aF-0.57999999999999996
aF0.059999999999999998
aI3401
aI3839
aI15297
aF579.60000000000002
aF395.60000000000002
aF155.47999999999999
aa(lp41
g3
ag4
aI0
aF4.5892500877380371
aF-0.63
aF-0.38
aF0.050000000000000003
aI3565
aI3280
aI18195
aF613.63999999999999
aF250.24000000000001
aF187.68000000000001
aa(lp42
g3
ag4
aI0
aF4.7379240989685059
aF-0.70999999999999996
aF-0.11
aF0.02
aI2501
aI4170
aI17922
aF615.48000000000002
aF172.03999999999999
aF199.63999999999999
aa(lp43
g3
ag4
aI0
aF4.8379180431365967
aF-0.84999999999999998
aF0.12
aF-0.01
aI394
aI6257
aI16947
aF573.15999999999997
aF32.200000000000003
aF234.59999999999999
aa(lp44
g3
ag4
aI0
aF4.9504640102386475
aF-0.76000000000000001
aF0.42999999999999999
aF-0.080000000000000002
aI-1253
aI4439
aI14504
aF481.16000000000003
aF-80.040000000000006
aF264.95999999999998
aa(lp45
g3
ag4
aI0
aF5.073936939239502
aF-0.64000000000000001
aF0.62
aF-0.14999999999999999
aI-1725
aI4789
aI12762
aF365.24000000000001
aF-154.56
aF276.92000000000002
aa(lp46
g3
ag4
aI0
aF5.2378499507904053
aF-0.48999999999999999
aF0.76000000000000001
aF-0.17999999999999999
aI-1480
aI3090
aI9602
aF258.51999999999998
aF-186.75999999999999
aF276.92000000000002
aa(lp47
g3
ag4
aI0
aF5.340507984161377
aF-0.41999999999999998
aF0.82999999999999996
aF-0.22
aI601
aI-3257
aI3666
aF204.24000000000001
aF-190.44
aF271.39999999999998
aa(lp48
g3
ag4
aI0
aF5.4565088748931885
aF-0.44
aF0.84999999999999998
aF-0.23000000000000001
aI2213
aI-4405
aI-6963
aF249.31999999999999
aF-181.24000000000001
aF280.60000000000002
aa(lp49
g3
ag4
aI0
aF5.5730938911437988
aF-0.51000000000000001
aF0.88
aF-0.20000000000000001
aI2990
aI-6581
aI-18180
aF308.19999999999999
aF-165.59999999999999
aF285.19999999999999
aa(lp50
g3
ag4
aI0
aF5.7377290725708008
aF-0.68000000000000005
aF0.77000000000000002
aF-0.17000000000000001
aI411
aI-7644
aI-23635
aF473.80000000000001
aF-78.200000000000003
aF271.39999999999998
aa(lp51
g3
ag4
aI0
aF5.8378739356994629
aF-0.78000000000000003
aF0.51000000000000001
aF-0.050000000000000003
aI-3446
aI-8554
aI-24022
aF602.60000000000002
aF92.920000000000002
aF213.44
aa(lp52
g3
ag4
aI0
aF5.9492619037628174
aF-0.72999999999999998
aF0.14999999999999999
aF0.070000000000000007
aI-5622
aI-7216
aI-19901
aF633.88
aF292.56
aF133.40000000000001
aa(lp53
g3
ag4
aI0
aF6.0991389751434326
aF-0.63
aF-0.19
aF0.13
aI-7047
aI-6617
aI-14286
aF585.12
aF444.36000000000001
aF90.159999999999997
aa(lp54
g3
ag4
aI0
aF6.2379128932952881
aF-0.46000000000000002
aF-0.45000000000000001
aF0.13
aI-5273
aI-3711
aI-6965
aF532.67999999999995
aF518.88
aF83.719999999999999
aa(lp55
g3
ag4
aI0
aF6.3477439880371094
aF-0.33000000000000002
aF-0.65000000000000002
aF0.12
aI-1789
aI-1092
aI-2765
aF505.07999999999998
aF544.63999999999999
aF86.480000000000004
aa(lp56
g3
ag4
aI0
aF6.460270881652832
aF-0.31
aF-0.72999999999999998
aF0.12
aI1902
aI1723
aI3838
aF507.83999999999997
aF540.96000000000004
aF87.400000000000006
aa(lp57
g3
ag4
aI0
aF6.5803799629211426
aF-0.37
aF-0.71999999999999997
aF0.16
aI4467
aI5686
aI11252
aF529.91999999999996
aF517.96000000000004
aF93.840000000000003
aa(lp58
g3
ag4
aI0
aF6.7368509769439697
aF-0.53000000000000003
aF-0.59999999999999998
aF0.19
aI4651
aI6905
aI15502
aF580.51999999999998
aF431.48000000000002
aF118.68000000000001
aa(lp59
g3
ag4
aI0
aF6.8379549980163574
aF-0.72999999999999998
aF-0.39000000000000001
aF0.14999999999999999
aI3413
aI2237
aI16600
aF618.24000000000001
aF300.83999999999997
aF155.47999999999999
aa(lp60
g3
ag4
aI0
aF6.9854249954223633
aF-0.79000000000000004
aF-0.17000000000000001
aF0.050000000000000003
aI1736
aI5584
aI16961
aF612.72000000000003
aF155.47999999999999
aF201.47999999999999
aa(lp61
g3
ag4
aI0
aF7.1378870010375977
aF-0.79000000000000004
aF0.070000000000000007
aF0.029999999999999999
aI182
aI9927
aI17064
aF555.67999999999995
aF20.239999999999998
aF249.31999999999999
aa(lp62
g3
ag4
aI0
aF7.2377068996429443
aF-0.77000000000000002
aF0.38
aF-0.050000000000000003
aI-2616
aI3643
aI13205
aF451.72000000000003
aF-87.400000000000006
aF282.44
aa(lp63
g3
ag4
aI0
aF7.3390190601348877
aF-0.65000000000000002
aF0.56000000000000005
aF-0.12
aI-3174
aI6188
aI10492
aF343.16000000000003
aF-152.72
aF289.80000000000001
aa(lp64
g3
ag4
aI0
aF7.4530360698699951
aF-0.51000000000000001
aF0.70999999999999996
aF-0.17999999999999999
aI-1746
aI883
aI8306
aF299
aF-172.03999999999999
aF287.04000000000002
aa(lp65
g3
ag4
aI0
aF7.5729329586029053
aF-0.39000000000000001
aF0.78000000000000003
aF-0.20000000000000001
aI-1629
aI2512
aI5876
aF225.40000000000001
aF-189.52000000000001
aF276.92000000000002
aa(lp66
g3
ag4
aI0
aF7.7376620769500732
aF-0.31
aF0.83999999999999997
aF-0.20999999999999999
aI156
aI-133
aI1312
aF173.88
aF-195.03999999999999
aF264.95999999999998
aa(lp67
g3
ag4
aI0
aF7.8376579284667969
aF-0.34000000000000002
aF0.87
aF-0.23999999999999999
aI2918
aI-3765
aI-6630
aF193.19999999999999
aF-190.44
aF271.39999999999998
aa(lp68
g3
ag4
aI0
aF7.9492559432983398
aF-0.46000000000000002
aF0.89000000000000001
aF-0.27000000000000002
aI5450
aI-5075
aI-16299
aF299
aF-161
aF290.72000000000003
aa(lp69
g3
ag4
aI0
aF8.0791928768157959
aF-0.65000000000000002
aF0.77000000000000002
aF-0.27000000000000002
aI4689
aI-4542
aI-21950
aF447.12
aF-57.960000000000001
aF299.92000000000002
aa(lp70
g3
ag4
aI0
aF8.2370250225067139
aF-0.80000000000000004
aF0.53000000000000003
aF-0.20000000000000001
aI2251
aI-8657
aI-23154
aF560.27999999999997
aF115.92
aF267.72000000000003
aa(lp71
g3
ag4
aI0
aF8.3370099067687988
aF-0.79000000000000004
aF0.20000000000000001
aF-0.11
aI-1857
aI-5585
aI-21718
aF583.27999999999997
aF305.44
aF211.59999999999999
aa(lp72
g3
ag4
aI0
aF8.4529359340667725
aF-0.67000000000000004
aF-0.14999999999999999
aF-0.029999999999999999
aI-3373
aI-4946
aI-18032
aF532.67999999999995
aF456.31999999999999
aF177.56
aa(lp73
g3
ag4
aI0
aF8.5718259811401367
aF-0.47999999999999998
aF-0.44
aF0.02
aI-2814
aI-1477
aI-11407
aF494.95999999999998
aF505.07999999999998
aF170.19999999999999
aa(lp74
g3
ag4
aI0
aF8.7379310131072998
aF-0.28999999999999998
aF-0.65000000000000002
aF0.01
aI-1468
aI-3529
aI-3030
aF433.31999999999999
aF557.51999999999998
aF173.88
aa(lp75
g3
ag4
aI0
aF8.8378710746765137
aF-0.23999999999999999
aF-0.73999999999999999
aF-0.01
aI1958
aI3073
aI6462
aF440.68000000000001
aF559.36000000000001
aF165.59999999999999
aa(lp76
g3
ag4
aI0
aF8.9504950046539307
aF-0.28000000000000003
aF-0.71999999999999997
aF-0
aI1735
aI7543
aI15382
aF483
aF511.51999999999998
aF178.47999999999999
aa(lp77
g3
ag4
aI0
aF9.1007630825042725
aF-0.52000000000000002
aF-0.57999999999999996
aF-0.01
aI1260
aI4878
aI18365
aF537.27999999999997
aF391
aF218.03999999999999
aa(lp78
g3
ag4
aI0
aF9.2373270988464355
aF-0.58999999999999997
aF-0.33000000000000002
aF-0.01
aI-297
aI6517
aI19380
aF2508.8400000000001
aF15722.799999999999
aF0.92000000000000004
aa(lp79
g3
ag4
aI0
aF9.3443470001220703
aF-0.76000000000000001
aF-0.040000000000000001
aF-0.17000000000000001
aI-3817
aI8125
aI18775
aF513.36000000000001
aF75.439999999999998
aF301.75999999999999
aa(lp80
g3
ag4
aI0
aF9.4692220687866211
aF-0.78000000000000003
aF0.28000000000000003
aF-0.26000000000000001
aI-5672
aI4162
aI15406
aF414.92000000000002
aF-62.560000000000002
aF319.24000000000001
aa(lp81
g3
ag4
aI0
aF9.636976957321167
aF-0.66000000000000003
aF0.52000000000000002
aF-0.32000000000000001
aI-5183
aI3693
aI12676
aF358.80000000000001
aF-109.48
aF312.80000000000001
aa(lp82
g3
ag4
aI0
aF9.7367050647735596
aF-0.53000000000000003
aF0.68999999999999995
aF-0.32000000000000001
aI-3172
aI2141
aI8870
aF264.04000000000002
aF-168.36000000000001
aF291.63999999999999
aa(lp83
g3
ag4
aI0
aF9.8378629684448242
aF-0.46000000000000002
aF0.77000000000000002
aF-0.33000000000000002
aI-399
aI-771
aI3164
aF195.96000000000001
aF-188.59999999999999
aF276.92000000000002
aa(lp84
g3
ag4
aI0
aF9.951894998550415
aF-0.46000000000000002
aF0.81999999999999995
aF-0.33000000000000002
aI3245
aI-2767
aI-5948
aF195.96000000000001
aF-182.16
aF279.68000000000001
aa(lp85
g3
ag4
aI0
aF10.099575996398926
aF-0.55000000000000004
aF0.81000000000000005
aF-0.34000000000000002
aI6227
aI-5259
aI-15266
aF292.56
aF-147.19999999999999
aF301.75999999999999
aa(lp86
g3
ag4
aI0
aF10.237843990325928
aF-0.75
aF0.71999999999999997
aF-0.31
aI5411
aI-9873
aI-23243
aF438.83999999999997
aF-46
aF309.12
aa(lp87
g3
ag4
aI0
aF10.34441089630127
aF-0.79000000000000004
aF0.45000000000000001
aF-0.25
aI1740
aI-5347
aI-23933
aF553.84000000000003
aF144.44
aF274.16000000000003
aa(lp88
g3
ag4
aI0
aF10.495583057403564
aF-0.76000000000000001
aF0.11
aF-0.13
aI-1671
aI-7486
aI-21284
aF569.48000000000002
aF330.27999999999997
aF224.47999999999999
aa(lp89
g3
ag4
aI0
aF10.636844873428345
aF-0.60999999999999999
aF-0.23000000000000001
aF-0.059999999999999998
aI-2892
aI-5135
aI-16293
aF517.96000000000004
aF468.27999999999997
aF188.59999999999999
aa(lp90
g3
ag4
aI0
aF10.736831903457642
aF-0.45000000000000001
aF-0.48999999999999999
aF-0.040000000000000001
aI-3015
aI-2355
aI-8438
aF469.19999999999999
aF538.20000000000005
aF175.72
aa(lp91
g3
ag4
aI0
aF10.841820001602173
aF-0.28999999999999998
aF-0.66000000000000003
aF-0.040000000000000001
aI8
aI1392
aI1656
aF452.63999999999999
aF542.79999999999995
aF180.31999999999999
aa(lp92
g3
ag4
aI0
aF10.985756874084473
aF-0.33000000000000002
aF-0.70999999999999996
aF0
aI3121
aI2343
aI11080
aF473.80000000000001
aF520.72000000000003
aF183.08000000000001
aa(lp93
g3
ag4
aI0
aF11.137634038925171
aF-0.41999999999999998
aF-0.63
aF0.040000000000000001
aI2375
aI2586
aI15176
aF531.75999999999999
aF445.27999999999997
aF191.36000000000001
aa(lp94
g3
ag4
aI0
aF11.237643957138062
aF-0.60999999999999999
aF-0.48999999999999999
aF0.02
aI1621
aI6372
aI16347
aF581.44000000000005
aF322
aF207
aa(lp95
g3
ag4
aI0
aF11.348021984100342
aF-0.78000000000000003
aF-0.26000000000000001
aF-0.050000000000000003
aI-1244
aI4598
aI16328
aF578.67999999999995
aF184.91999999999999
aF246.56
aa(lp96
g3
ag4
aI0
aF11.46801495552063
aF-0.81999999999999995
aF0.02
aF-0.14000000000000001
aI-2729
aI4189
aI15564
aF524.39999999999998
aF46
aF281.51999999999998
aa(lp97
g3
ag4
aI0
aF11.637787103652954
aF-0.79000000000000004
aF0.28999999999999998
aF-0.19
aI-3615
aI5452
aI13230
aF436.07999999999998
aF-63.479999999999997
aF299.92000000000002
aa(lp98
g3
ag4
aI0
aF11.73677396774292
aF-0.71999999999999997
aF0.47999999999999998
aF-0.25
aI-3230
aI2534
aI11528
aF392.83999999999997
aF-104.88
aF299
aa(lp99
g3
ag4
aI0
aF11.836939096450806
aF-0.57999999999999996
aF0.68000000000000005
aF-0.27000000000000002
aI-3288
aI3884
aI8644
aF300.83999999999997
aF-165.59999999999999
aF286.12
aa(lp100
g3
ag4
aI0
aF11.976818084716797
aF-0.45000000000000001
aF0.75
aF-0.28000000000000003
aI-2283
aI2799
aI6034
aF221.72
aF-190.44
aF272.31999999999999
aa(lp101
g3
ag4
aI0
aF12.13664698600769
aF-0.40999999999999998
aF0.81000000000000005
aF-0.28000000000000003
aI680
aI-464
aI-234
aF180.31999999999999
aF-195.03999999999999
aF264.04000000000002
aa(lp102
g3
ag4
aI0
aF12.237504005432129
aF-0.41999999999999998
aF0.82999999999999996
aF-0.28999999999999998
aI3421
aI-2000
aI-7143
aF206.08000000000001
aF-187.68000000000001
aF273.24000000000001
aa(lp103
g3
ag4
aI0
aF12.345586061477661
aF-0.5
aF0.81999999999999995
aF-0.31
aI6209
aI-4510
aI-13928
aF303.60000000000002
aF-149.96000000000001
aF295.31999999999999
aa(lp104
g3
ag4
aI0
aF12.464708089828491
aF-0.63
aF0.70999999999999996
aF-0.32000000000000001
aI6504
aI-4911
aI-17909
aF426.88
aF-50.600000000000001
aF313.72000000000003
aa(lp105
g3
ag4
aI0
aF12.63786506652832
aF-0.77000000000000002
aF0.46999999999999997
aF-0.26000000000000001
aI3372
aI-6258
aI-19668
aF532.67999999999995
aF103.04000000000001
aF286.12
aa(lp106
g3
ag4
aI0
aF12.74953293800354
aF-0.77000000000000002
aF0.17000000000000001
aF-0.17999999999999999
aI1535
aI-5509
aI-18399
aF551.08000000000004
aF188.59999999999999
aF276
aa(lp107
g3
ag4
aI0
aF12.865768909454346
aF-0.77000000000000002
aF-0.13
aF-0.12
aI-629
aI-6598
aI-15942
aF563.03999999999996
aF337.63999999999999
aF227.24000000000001
aa(lp108
g3
ag4
aI0
aF13.037914991378784
aF-0.59999999999999998
aF-0.39000000000000001
aF-0.029999999999999999
aI-1180
aI-1781
aI-12476
aF523.48000000000002
aF458.16000000000003
aF187.68000000000001
aa(lp109
g3
ag4
aI0
aF13.137984037399292
aF-0.44
aF-0.59999999999999998
aF0.01
aI-1853
aI-3501
aI-7231
aF472.88
aF528.08000000000004
aF175.72
aa(lp110
g3
ag4
aI0
aF13.236733913421631
aF-0.31
aF-0.71999999999999997
aF-0.02
aI717
aI577
aI1364
aF448.95999999999998
aF552.91999999999996
aF171.12
aa(lp111
g3
ag4
aI0
aF13.385654926300049
aF-0.34999999999999998
aF-0.73999999999999999
aF-0.01
aI1668
aI2639
aI10703
aF500.48000000000002
aF0.92000000000000004
aF2508.8400000000001
aa(lp112
g3
ag4
aI0
aF13.537213087081909
aF-0.46000000000000002
aF-0.67000000000000004
aF0.02
aI1743
aI3956
aI13555
aF536.36000000000001
aF439.75999999999999
aF186.75999999999999
aa(lp113
g3
ag4
aI0
aF13.63707709312439
aF-0.62
aF-0.55000000000000004
aF0
aI623
aI3330
aI14714
aF573.15999999999997
aF328.44
aF208.84
aa(lp114
g3
ag4
aI0
aF13.737205982208252
aF-0.77000000000000002
aF-0.35999999999999999
aF-0.02
aI-283
aI4231
aI15026
aF586.96000000000004
aF263.12
aF221.72
aa(lp115
g3
ag4
aI0
aF13.859240055084229
aF-0.78000000000000003
aF-0.13
aF-0.089999999999999997
aI-1828
aI5435
aI14433
aF563.96000000000004
aF137.08000000000001
aF259.44
aa(lp116
g3
ag4
aI0
aF13.979295969009399
aF-0.80000000000000004
aF0.14999999999999999
aF-0.14000000000000001
aI-3036
aI2395
aI13500
aF503.24000000000001
aF14.720000000000001
aF287.95999999999998
aa(lp117
g3
ag4
aI0
aF14.137453079223633
aF-0.73999999999999999
aF0.38
aF-0.22
aI-3187
aI4736
aI11953
aF426.88
aF-78.200000000000003
aF294.39999999999998
aa(lp118
g3
ag4
aI0
aF14.236787080764771
aF-0.63
aF0.56999999999999995
aF-0.26000000000000001
aI-3087
aI2772
aI10168
aF334.88
aF-143.52000000000001
aF295.31999999999999
aa(lp119
g3
ag4
aI0
aF14.349199056625366
aF-0.5
aF0.68999999999999995
aF-0.26000000000000001
aI-2132
aI1327
aI8479
aF255.75999999999999
aF-176.63999999999999
aF283.36000000000001
aa(lp120
g3
ag4
aI0
aF14.464080095291138
aF-0.41999999999999998
aF0.78000000000000003
aF-0.27000000000000002
aI-841
aI403
aI3145
aF200.56
aF-189.52000000000001
aF273.24000000000001
aa(lp121
g3
ag4
aI0
aF14.63777494430542
aF-0.44
aF0.80000000000000004
aF-0.28999999999999998
aI2112
aI-3795
aI-3357
aF219.88
aF-184.91999999999999
aF276
aa(lp122
g3
ag4
aI0
aF14.736820936203003
aF-0.46999999999999997
aF0.81000000000000005
aF-0.28999999999999998
aI3873
aI-2996
aI-10313
aF251.16
aF-174.80000000000001
aF285.19999999999999
aa(lp123
g3
ag4
aI0
aF14.844279050827026
aF-0.57999999999999996
aF0.75
aF-0.28999999999999998
aI4421
aI-4023
aI-15028
aF349.60000000000002
aF-126.04000000000001
aF300.83999999999997
aa(lp124
g3
ag4
aI0
aF14.964461088180542
aF-0.68000000000000005
aF0.60999999999999999
aF-0.27000000000000002
aI3682
aI-3163
aI-16391
aF456.31999999999999
aF-34.039999999999999
aF300.83999999999997
aa(lp125
g3
ag4
aI0
aF15.136883020401001
aF-0.78000000000000003
aF0.37
aF-0.22
aI2419
aI-5623
aI-17591
aF536.36000000000001
aF96.599999999999994
aF288.88
aa(lp126
g3
ag4
aI0
aF15.237680912017822
aF-0.80000000000000004
aF0.089999999999999997
aF-0.17000000000000001
aI441
aI-2828
aI-16805
aF567.63999999999999
aF248.40000000000001
aF248.40000000000001
aa(lp127
g3
ag4
aI0
aF15.356571912765503
aF-0.76000000000000001
aF-0.19
aF-0.080000000000000002
aI174
aI-5330
aI-14663
aF551.08000000000004
aF379.95999999999998
aF217.12
aa(lp128
g3
ag4
aI0
aF15.477987051010132
aF-0.65000000000000002
aF-0.42999999999999999
aF-0.02
aI-1875
aI-7516
aI-11937
aF512.44000000000005
aF484.83999999999997
aF176.63999999999999
aa(lp129
g3
ag4
aI0
aF15.63769006729126
aF-0.48999999999999999
aF-0.62
aF-0.01
aI-2334
aI-4098
aI-8116
aF482.07999999999998
aF540.96000000000004
aF152.72
aa(lp130
g3
ag4
aI0
aF15.736557960510254
aF-0.34999999999999998
aF-0.73999999999999999
aF0.029999999999999999
aI257
aI-1209
aI306
aF460
aF564.88
aF147.19999999999999
aa(lp131
g3
ag4
aI0
aF15.868185043334961
aF-0.33000000000000002
aF-0.80000000000000004
aF0.059999999999999998
aI610
aI2690
aI6942
aF466.44
aF558.44000000000005
aF144.44
aa(lp132
g3
ag4
aI0
aF16.037694931030273
aF-0.40999999999999998
aF-0.73999999999999999
aF0.050000000000000003
aI331
aI3942
aI11954
aF506.92000000000002
aF502.31999999999999
aF157.31999999999999
aa(lp133
g3
ag4
aI0
aF16.137727975845337
aF-0.56000000000000005
aF-0.64000000000000001
aF0.059999999999999998
aI539
aI2116
aI13709
aF563.96000000000004
aF403.88
aF181.24000000000001
aa(lp134
g3
ag4
aI0
aF16.237655878067017
aF-0.63
aF-0.46000000000000002
aF-0.01
aI-630
aI4969
aI14697
aF588.79999999999995
aF281.51999999999998
aF211.59999999999999
aa(lp135
g3
ag4
aI0
aF16.36781907081604
aF-0.78000000000000003
aF-0.23999999999999999
aF-0.070000000000000007
aI-2149
aI6809
aI16047
aF578.67999999999995
aF139.84
aF241.96000000000001
aa(lp136
g3
ag4
aI0
aF16.537734031677246
aF-0.83999999999999997
aF0.050000000000000003
aF-0.14000000000000001
aI-3228
aI2523
aI14874
aF510.60000000000002
aF-0.92000000000000004
aF276.92000000000002
aa(lp137
g3
ag4
aI0
aF16.637680053710938
aF-0.82999999999999996
aF0.28000000000000003
aF-0.17999999999999999
aI-2524
aI6263
aI12023
aF429.63999999999999
aF-94.760000000000005
aF285.19999999999999
aa(lp138
g3
ag4
aI0
aF16.737653970718384
aF-0.72999999999999998
aF0.46999999999999997
aF-0.23000000000000001
aI-2868
aI1846
aI9289
aF383.63999999999999
aF-131.56
aF284.27999999999997
aa(lp139
g3
ag4
aI0
aF16.850490093231201
aF-0.58999999999999997
aF0.59999999999999998
aF-0.26000000000000001
aI-2440
aI3604
aI7533
aF301.75999999999999
aF-172.03999999999999
aF276
aa(lp140
g3
ag4
aI0
aF16.964315891265869
aF-0.46000000000000002
aF0.69999999999999996
aF-0.28000000000000003
aI-1928
aI3064
aI5670
aF227.24000000000001
aF-193.19999999999999
aF264.95999999999998
aa(lp141
g3
ag4
aI0
aF17.136667966842651
aF-0.40000000000000002
aF0.78000000000000003
aF-0.28999999999999998
aI-418
aI394
aI2093
aF175.72
aF-201.47999999999999
aF255.75999999999999
aa(lp142
g3
ag4
aI0
aF17.236929893493652
aF-0.40999999999999998
aF0.81000000000000005
aF-0.29999999999999999
aI2520
aI-2113
aI-4562
aF183.08000000000001
aF-202.40000000000001
aF262.19999999999999
aa(lp143
g3
ag4
aI0
aF17.349225044250488
aF-0.48999999999999999
aF0.80000000000000004
aF-0.32000000000000001
aI5266
aI-4020
aI-11226
aF261.27999999999997
aF-175.72
aF282.44
aa(lp144
g3
ag4
aI0
aF17.471678018569946
aF-0.64000000000000001
aF0.73999999999999999
aF-0.28999999999999998
aI5058
aI-6997
aI-17255
aF390.07999999999998
aF-103.95999999999999
aF297.16000000000003
aa(lp145
g3
ag4
aI0
aF17.637136936187744
aF-0.75
aF0.53000000000000003
aF-0.25
aI3339
aI-5205
aI-20381
aF519.79999999999995
aF28.52
aF284.27999999999997
aa(lp146
g3
ag4
aI0
aF17.737458944320679
aF-0.79000000000000004
aF0.22
aF-0.19
aI561
aI-5806
aI-19234
aF581.44000000000005
aF197.80000000000001
aF242.88
aa(lp147
g3
ag4
aI0
aF17.868311882019043
aF-0.73999999999999999
aF-0.080000000000000002
aF-0.10000000000000001
aI-1333
aI-5128
aI-16980
aF585.12
aF276
aF217.12
aa(lp148
g3
ag4
aI0
aF18.037671089172363
aF-0.60999999999999999
aF-0.34000000000000002
aF-0.01
aI-1775
aI-5979
aI-11336
aF561.20000000000005
aF405.72000000000003
aF184
aa(lp149
g3
ag4
aI0
aF18.137363910675049
aF-0.51000000000000001
aF-0.56999999999999995
aF0.02
aI-1638
aI-3712
aI-6864
aF536.36000000000001
aF483.92000000000002
aF148.12
aa(lp150
g3
ag4
aI0
aF18.237657070159912
aF-0.40999999999999998
aF-0.70999999999999996
aF0.040000000000000001
aI-470
aI-2748
aI-1796
aF514.27999999999997
aF517.03999999999996
aF131.56
aa(lp151
g3
ag4
aI0
aF18.344229936599731
aF-0.37
aF-0.77000000000000002
aF0.029999999999999999
aI771
aI2652
aI4649
aF521.63999999999999
aF508.75999999999999
aF126.95999999999999
aa(lp152
g3
ag4
aI0
aF18.507962942123413
aF-0.45000000000000001
aF-0.73999999999999999
aF0.050000000000000003
aI1586
aI3005
aI9812
aF553.84000000000003
aF457.24000000000001
aF142.59999999999999
aa(lp153
g3
ag4
aI0
aF18.636854887008667
aF-0.54000000000000004
aF-0.66000000000000003
aF0.059999999999999998
aI2696
aI6046
aI11570
aF584.20000000000005
aF368.92000000000002
aF169.28
aa(lp154
g3
ag4
aI0
aF18.736368894577026
aF-0.67000000000000004
aF-0.54000000000000004
aF0.029999999999999999
aI2590
aI4310
aI12252
aF598
aF276
aF200.56
aa(lp155
g3
ag4
aI0
aF18.845582962036133
aF-0.76000000000000001
aF-0.37
aF-0.029999999999999999
aI618
aI2762
aI12707
aF0.92000000000000004
aF9.1999999999999993
aF15722.799999999999
aa(lp156
g3
ag4
aI0
aF18.966923952102661
aF-0.81999999999999995
aF-0.16
aF-0.070000000000000007
aI-701
aI5603
aI13133
aF2508.8400000000001
aF15722.799999999999
aF0.92000000000000004
aa(lp157
g3
ag4
aI0
aF19.137726068496704
aF-0.81999999999999995
aF0.050000000000000003
aF-0.10000000000000001
aI-2088
aI6722
aI13483
aF513.36000000000001
aF10.119999999999999
aF277.83999999999997
aa(lp158
g3
ag4
aI0
aF19.237222909927368
aF-0.78000000000000003
aF0.31
aF-0.20000000000000001
aI-3172
aI4348
aI11852
aF428.72000000000003
aF-81.879999999999995
aF297.16000000000003
aa(lp159
g3
ag4
aI0
aF19.349215030670166
aF-0.68000000000000005
aF0.5
aF-0.25
aI-3610
aI2725
aI9993
aF-20961.279999999999
aF-14602.24
aF296.24000000000001
aa(lp160
g3
ag4
aI0
aF19.470756053924561
aF-0.53000000000000003
aF0.65000000000000002
aF-0.28000000000000003
aI-3721
aI3362
aI8700
aF241.96000000000001
aF-183.08000000000001
aF277.83999999999997
aa(lp161
g3
ag4
aI0
aF19.637731075286865
aF-0.40000000000000002
aF0.75
aF-0.28000000000000003
aI-2346
aI848
aI6662
aF177.56
aF-202.40000000000001
aF256.68000000000001
aa(lp162
g3
ag4
aI0
aF19.739268064498901
aF-0.31
aF0.82999999999999996
aF-0.27000000000000002
aI-1224
aI878
aI3765
aF133.40000000000001
aF-201.47999999999999
aF247.47999999999999
aa(lp163
g3
ag4
aI0
aF19.843070030212402
aF-0.27000000000000002
aF0.84999999999999998
aF-0.26000000000000001
aI827
aI-333
aI-1356
aF126.95999999999999
aF-203.31999999999999
aF247.47999999999999
aa(lp164
g3
ag4
aI0
aF19.983187913894653
aF-0.28000000000000003
aF0.87
aF-0.26000000000000001
aI2767
aI-3791
aI-4655
aF149.03999999999999
aF-199.63999999999999
aF253
aa(lp165
g3
ag4
aI0
aF20.137705087661743
aF-0.34999999999999998
aF0.85999999999999999
aF-0.27000000000000002
aI4413
aI-4299
aI-10075
aF218.03999999999999
aF-187.68000000000001
aF274.16000000000003
aa(lp166
g3
ag4
aI0
aF20.23744797706604
aF-0.48999999999999999
aF0.79000000000000004
aF-0.28000000000000003
aI4617
aI-5708
aI-13076
aF336.72000000000003
aF-140.75999999999999
aF293.48000000000002
aa(lp167
g3
ag4
aI0
aF20.361955881118774
aF-0.63
aF0.63
aF-0.25
aI3225
aI-5339
aI-15322
aF453.56
aF-57.960000000000001
aF294.39999999999998
aa(lp168
g3
ag4
aI0
aF20.536834955215454
aF-0.73999999999999999
aF0.41999999999999998
aF-0.20000000000000001
aI1519
aI-5074
aI-15073
aF540.03999999999996
aF59.799999999999997
aF264.95999999999998
aa(lp169
g3
ag4
aI0
aF20.636600017547607
aF-0.78000000000000003
aF0.17000000000000001
aF-0.11
aI-155
aI-6246
aI-13429
aF593.39999999999998
aF175.72
aF228.16
aa(lp170
g3
ag4
aI0
aF20.741777896881104
aF-0.78000000000000003
aF-0.080000000000000002
aF-0
aI-1459
aI-6781
aI-12114
aF616.39999999999998
aF286.12
aF172.03999999999999
aa(lp171
g3
ag4
aI0
aF20.85443902015686
aF-0.75
aF-0.29999999999999999
aF0.080000000000000002
aI-3199
aI-6122
aI-10914
aF609.03999999999996
aF382.72000000000003
aF119.59999999999999
aa(lp172
g3
ag4
aI0
aF20.993540048599243
aF-0.64000000000000001
aF-0.5
aF0.13
aI-3797
aI-4914
aI-10289
aF591.55999999999995
aF425.04000000000002
aF103.95999999999999
aa(lp173
g3
ag4
aI0
aF21.137516021728516
aF-0.48999999999999999
aF-0.63
aF0.17999999999999999
aI-3133
aI-3063
aI-7199
aF552.91999999999996
aF499.56
aF81.879999999999995
aa(lp174
g3
ag4
aI0
aF21.241748094558716
aF-0.35999999999999999
aF-0.71999999999999997
aF0.14000000000000001
aI-1407
aI-27
aI251
aF521.63999999999999
aF538.20000000000005
aF74.519999999999996
aa(lp175
g3
ag4
aI0
aF21.368355989456177
aF-0.35999999999999999
aF-0.75
aF0.12
aI1814
aI3155
aI8084
aF537.27999999999997
aF510.60000000000002
aF87.400000000000006
aa(lp176
g3
ag4
aI0
aF21.537757873535156
aF-0.46999999999999997
aF-0.69999999999999996
aF0.12
aI3458
aI6037
aI11949
aF584.20000000000005
aF437
aF107.64
aa(lp177
g3
ag4
aI0
aF21.637315034866333
aF-0.62
aF-0.58999999999999997
aF0.12
aI3041
aI6733
aI12883
aF609.03999999999996
aF333.04000000000002
aF151.80000000000001
aa(lp178
g3
ag4
aI0
aF21.736788034439087
aF-0.73999999999999999
aF-0.42999999999999999
aF0.059999999999999998
aI2498
aI676
aI12462
aF621.91999999999996
aF223.56
aF181.24000000000001
aa(lp179
g3
ag4
aI0
aF21.84702205657959
aF-0.81000000000000005
aF-0.23999999999999999
aF0.029999999999999999
aI1251
aI3470
aI13141
aF617.32000000000005
aF171.12
aF192.28
aa(lp180
g3
ag4
aI0
aF21.985569953918457
aF-0.85999999999999999
aF-0.01
aF-0.01
aI-978
aI5391
aI12845
aF583.27999999999997
aF61.640000000000001
aF229.08000000000001
aa(lp181
g3
ag4
aI0
aF22.1373291015625
aF-0.81000000000000005
aF0.22
aF-0.089999999999999997
aI-1721
aI5533
aI12575
aF503.24000000000001
aF-40.479999999999997
aF263.12
aa(lp182
g3
ag4
aI0
aF22.237294912338257
aF-0.72999999999999998
aF0.40999999999999998
aF-0.16
aI-2575
aI5405
aI12163
aF407.56
aF-119.59999999999999
aF279.68000000000001
aa(lp183
g3
ag4
aI0
aF22.35565710067749
aF-0.60999999999999999
aF0.60999999999999999
aF-0.19
aI-2899
aI2233
aI11020
aF302.68000000000001
aF-174.80000000000001
aF274.16000000000003
aa(lp184
g3
ag4
aI0
aF22.473165988922119
aF-0.46999999999999997
aF0.75
aF-0.20000000000000001
aI-2334
aI3067
aI7409
aF214.36000000000001
aF-199.63999999999999
aF259.44
aa(lp185
g3
ag4
aI0
aF22.637698888778687
aF-0.41999999999999998
aF0.82999999999999996
aF-0.23000000000000001
aI-37
aI-618
aI1237
aF166.52000000000001
aF-207
aF251.16
aa(lp186
g3
ag4
aI0
aF22.74032187461853
aF-0.46999999999999997
aF0.85999999999999999
aF-0.28000000000000003
aI3776
aI-3778
aI-9193
aF184.91999999999999
aF-203.31999999999999
aF252.08000000000001
aa(lp187
g3
ag4
aI0
aF22.862045049667358
aF-0.64000000000000001
aF0.85999999999999999
aF-0.26000000000000001
aI6281
aI-10509
aI-22470
aF298.07999999999998
aF-171.12
aF278.75999999999999
aa(lp188
g3
ag4
aI0
aF23.037620067596436
aF-0.85999999999999999
aF0.59999999999999998
aF-0.14000000000000001
aI779
aI-14171
aI-30635
aF517.96000000000004
aF-33.119999999999997
aF258.51999999999998
aa(lp189
g3
ag4
aI0
aF23.137703895568848
aF-0.77000000000000002
aF0.26000000000000001
aF-0.01
aI-7658
aI-6486
aI-28991
aF636.63999999999999
aF222.63999999999999
aF157.31999999999999
aa(lp190
g3
ag4
aI0
aF23.255721092224121
aF-0.55000000000000004
aF-0.059999999999999998
aF0.040000000000000001
aI-7112
aI-4037
aI-17300
aF579.60000000000002
aF439.75999999999999
aF120.52
aa(lp191
g3
ag4
aI0
aF23.372016906738281
aF-0.35999999999999999
aF-0.39000000000000001
aF0.02
aI-1515
aI-1440
aI-3169
aF519.79999999999995
aF521.63999999999999
aF118.68000000000001
aa(lp192
g3
ag4
aI0
aF23.536710977554321
aF-0.34000000000000002
aF-0.54000000000000004
aF0.029999999999999999
aI3977
aI4148
aI10785
aF534.51999999999998
aF506
aF116.84
aa(lp193
g3
ag4
aI0
aF23.636727094650269
aF-0.40999999999999998
aF-0.52000000000000002
aF0.050000000000000003
aI3075
aI7485
aI20126
aF589.72000000000003
aF384.56
aF149.03999999999999
aa(lp194
g3
ag4
aI0
aF23.751872062683105
aF-0.60999999999999999
aF-0.34999999999999998
aF-0.01
aI769
aI8780
aI22598
aF601.67999999999995
aF193.19999999999999
aF215.28
aa(lp195
g3
ag4
aI0
aF23.879220962524414
aF-0.72999999999999998
aF-0.029999999999999999
aF-0.050000000000000003
aI-902
aI5871
aI22051
aF581.44000000000005
aF96.599999999999994
aF235.52000000000001
aa(lp196
g3
ag4
aI0
aF24.036458969116211
aF-0.77000000000000002
aF0.33000000000000002
aF-0.14000000000000001
aI-3010
aI4264
aI21433
aF472.88
aF-67.159999999999997
aF269.56
aa(lp197
g3
ag4
aI0
aF24.136400938034058
aF-0.67000000000000004
aF0.60999999999999999
aF-0.20000000000000001
aI-1978
aI3214
aI14386
aF331.19999999999999
aF-163.75999999999999
aF271.39999999999998
aa(lp198
g3
ag4
aI0
aF24.267776012420654
aF-0.52000000000000002
aF0.76000000000000001
aF-0.22
aI-1176
aI3536
aI2038
aF217.12
aF-190.44
aF265.88
aa(lp199
g3
ag4
aI0
aF24.436269044876099
aF-0.39000000000000001
aF0.78000000000000003
aF-0.20999999999999999
aI196
aI316
aI184
aF200.56
aF-195.96000000000001
aF260.36000000000001
aa(lp200
g3
ag4
aI0
aF24.537450075149536
aF-0.31
aF0.81999999999999995
aF-0.20999999999999999
aI28
aI1698
aI283
aF196.88
aF-192.28
aF260.36000000000001
aa(lp201
g3
ag4
aI0
aF24.6373291015625
aF-0.26000000000000001
aF0.83999999999999997
aF-0.19
aI242
aI626
aI-729
aF188.59999999999999
aF-194.12
aF261.27999999999997
aa(lp202
g3
ag4
aI0
aF24.737076997756958
aF-0.23999999999999999
aF0.83999999999999997
aF-0.20000000000000001
aI284
aI-142
aI88
aF193.19999999999999
aF-194.12
aF264.04000000000002
aa(lp203
g3
ag4
aI0
aF24.853059053421021
aF-0.23000000000000001
aF0.83999999999999997
aF-0.20000000000000001
aI-18
aI986
aI54
aF191.36000000000001
aF-191.36000000000001
aF263.12
aa(lp204
g3
ag4
aI0
aF24.958084106445312
aF-0.22
aF0.84999999999999998
aF-0.20999999999999999
aI69
aI150
aI137
aF187.68000000000001
aF-190.44
aF260.36000000000001
aa(lp205
g3
ag4
aI0
aF25.137432098388672
aF-0.22
aF0.84999999999999998
aF-0.20999999999999999
aI-5
aI280
aI-14
aF186.75999999999999
aF-192.28
aF264.04000000000002
aa.