(lp1
(lp2
S'Lazar'
p3
aS'bicep curls'
p4
aI0
aF9.5367431640625e-07
aI0
aI0
aI0
aI0
aI0
aI0
aI0
aI0
aI0
aa(lp5
g3
ag4
aI0
aF0.16313815116882324
aF-0
aF0.92000000000000004
aF-0.22
aI139
aI-191
aI59
aF58.880000000000003
aF31.280000000000001
aF-12.880000000000001
aa(lp6
g3
ag4
aI0
aF0.24386501312255859
aF-0
aF0.92000000000000004
aF-0.20999999999999999
aI180
aI71
aI72
aF57.960000000000001
aF30.359999999999999
aF-12.880000000000001
aa(lp7
g3
ag4
aI0
aF0.35101604461669922
aF0
aF0.92000000000000004
aF-0.22
aI129
aI-28
aI71
aF58.880000000000003
aF30.359999999999999
aF-11.039999999999999
aa(lp8
g3
ag4
aI0
aF0.48753714561462402
aF0.01
aF0.92000000000000004
aF-0.22
aI128
aI194
aI23
aF59.799999999999997
aF30.359999999999999
aF-13.800000000000001
aa(lp9
g3
ag4
aI0
aF0.64388895034790039
aF0.01
aF0.92000000000000004
aF-0.22
aI72
aI119
aI-30
aF59.799999999999997
aF31.280000000000001
aF-12.880000000000001
aa(lp10
g3
ag4
aI0
aF0.74427294731140137
aF0.01
aF0.92000000000000004
aF-0.22
aI3
aI83
aI57
aF57.039999999999999
aF28.52
aF-11.960000000000001
aa(lp11
g3
ag4
aI0
aF0.84443116188049316
aF0
aF0.92000000000000004
aF-0.23000000000000001
aI37
aI203
aI51
aF57.960000000000001
aF28.52
aF-12.880000000000001
aa(lp12
g3
ag4
aI0
aF0.94474697113037109
aF-0.029999999999999999
aF0.92000000000000004
aF-0.23999999999999999
aI952
aI-1572
aI-514
aF57.039999999999999
aF30.359999999999999
aF-12.880000000000001
aa(lp13
g3
ag4
aI0
aF1.046389102935791
aF-0.050000000000000003
aF0.91000000000000003
aF-0.22
aI509
aI-2145
aI-1794
aF82.799999999999997
aF31.280000000000001
aF-0.92000000000000004
aa(lp14
g3
ag4
aI0
aF1.1749460697174072
aF-0.040000000000000001
aF0.91000000000000003
aF-0.22
aI269
aI1474
aI-627
aF96.599999999999994
aF26.68
aF2.7599999999999998
aa(lp15
g3
ag4
aI0
aF1.3451311588287354
aF-0.02
aF0.91000000000000003
aF-0.22
aI-194
aI1329
aI-413
aF93.840000000000003
aF24.84
aF0.92000000000000004
aa(lp16
g3
ag4
aI0
aF1.4446229934692383
aF-0.029999999999999999
aF0.92000000000000004
aF-0.23999999999999999
aI-391
aI-220
aI211
aF93.840000000000003
aF27.600000000000001
aF-1.8400000000000001
aa(lp17
g3
ag4
aI0
aF1.5449850559234619
aF-0.050000000000000003
aF0.92000000000000004
aF-0.23000000000000001
aI-320
aI90
aI601
aF91.079999999999998
aF23.920000000000002
aF-4.5999999999999996
aa(lp18
g3
ag4
aI0
aF1.6440680027008057
aF-0.059999999999999998
aF0.92000000000000004
aF-0.23000000000000001
aI157
aI144
aI205
aF87.400000000000006
aF26.68
aF-3.6800000000000002
aa(lp19
g3
ag4
aI0
aF1.7647790908813477
aF-0.059999999999999998
aF0.92000000000000004
aF-0.23999999999999999
aI84
aI-625
aI-375
aF90.159999999999997
aF23.920000000000002
aF-3.6800000000000002
aa(lp20
g3
ag4
aI0
aF1.863677978515625
aF-0.11
aF0.92000000000000004
aF-0.27000000000000002
aI1639
aI-6727
aI-3473
aF126.04000000000001
aF20.239999999999998
aF7.3600000000000003
aa(lp21
g3
ag4
aI0
aF1.9837851524353027
aF-0.34999999999999998
aF0.95999999999999996
aF-0.26000000000000001
aI3967
aI-15573
aI-13372
aF176.63999999999999
aF21.16
aF21.16
aa(lp22
g3
ag4
aI0
aF2.1452960968017578
aF-0.81999999999999995
aF0.85999999999999999
aF-0.080000000000000002
aI-6084
aI-25638
aI-29234
aF416.75999999999999
aF57.039999999999999
aF15.640000000000001
aa(lp23
g3
ag4
aI0
aF2.250028133392334
aF-0.88
aF0.58999999999999997
aF0.11
aI-14905
aI-1602
aI-30671
aF681.72000000000003
aF245.63999999999999
aF-140.75999999999999
aa(lp24
g3
ag4
aI0
aF2.3699619770050049
aF-0.64000000000000001
aF0.26000000000000001
aF0.20999999999999999
aI-13948
aI-3617
aI-22412
aF729.55999999999995
aF517.96000000000004
aF-178.47999999999999
aa(lp25
g3
ag4
aI0
aF2.5001890659332275
aF-0.54000000000000004
aF-0.17999999999999999
aF0.089999999999999997
aI-14320
aI-8003
aI-8503
aF682.63999999999999
aF695.51999999999998
aF-209.75999999999999
aa(lp26
g3
ag4
aI0
aF2.6498491764068604
aF-0.34000000000000002
aF-0.48999999999999999
aF-0.070000000000000007
aI2039
aI9670
aI-4972
aF652.27999999999997
aF744.27999999999997
aF-178.47999999999999
aa(lp27
g3
ag4
aI0
aF2.766077995300293
aF-0.31
aF-0.63
aF-0.01
aI8445
aI-545
aI18235
aF296.24000000000001
aF2381.8800000000001
aF-14602.24
aa(lp28
g3
ag4
aI0
aF2.8999831676483154
aF-0.5
aF-0.53000000000000003
aF0.029999999999999999
aI14840
aI17263
aI17453
aF706.55999999999995
aF569.48000000000002
aF-126.95999999999999
aa(lp29
g3
ag4
aI0
aF3.0444099903106689
aF-0.62
aF-0.28000000000000003
aF-0.02
aI2264
aI22449
aI22155
aF608.12
aF383.63999999999999
aF46
aa(lp30
g3
ag4
aI0
aF3.1441781520843506
aF-0.67000000000000004
aF0.11
aF-0.38
aI-11109
aI18788
aI20095
aF368
aF192.28
aF140.75999999999999
aa(lp31
g3
ag4
aI0
aF3.2861809730529785
aF-0.47999999999999998
aF0.34999999999999998
aF-0.51000000000000001
aI-14240
aI12461
aI17064
aF244.72
aF118.68000000000001
aF116.84
aa(lp32
g3
ag4
aI0
aF3.4443471431732178
aF-0.40999999999999998
aF0.76000000000000001
aF-0.54000000000000004
aI-12482
aI-2428
aI11191
aF80.040000000000006
aF40.479999999999997
aF19.32
aa(lp33
g3
ag4
aI0
aF3.5438950061798096
aF-0.32000000000000001
aF0.85999999999999999
aF-0.62
aI-1568
aI-5106
aI1731
aF-1.8400000000000001
aF39.560000000000002
aF-57.039999999999999
aa(lp34
g3
ag4
aI0
aF3.6451780796051025
aF-0.26000000000000001
aF0.98999999999999999
aF-0.57999999999999996
aI7772
aI-12836
aI-9840
aF36.799999999999997
aF36.799999999999997
aF-23
aa(lp35
g3
ag4
aI0
aF3.7662489414215088
aF-0.47999999999999998
aF1.02
aF-0.52000000000000002
aI8469
aI-21577
aI-24749
aF272.31999999999999
aF56.119999999999997
aF62.560000000000002
aa(lp36
g3
ag4
aI0
aF3.8837320804595947
aF-0.68000000000000005
aF0.71999999999999997
aF-0.23999999999999999
aI-2683
aI-16567
aI-31106
aF612.72000000000003
aF225.40000000000001
aF-26.68
aa(lp37
g3
ag4
aI0
aF4.0452620983123779
aF-0.67000000000000004
aF0.32000000000000001
aF0
aI-10514
aI-13120
aI-24535
aF732.32000000000005
aF475.63999999999999
aF-165.59999999999999
aa(lp38
g3
ag4
aI0
aF4.1562600135803223
aF-0.60999999999999999
aF-0.10000000000000001
aF0.10000000000000001
aI-12675
aI-4555
aI-16203
aF702.88
aF664.24000000000001
aF-206.08000000000001
aa(lp39
g3
ag4
aI0
aF4.2724721431732178
aF-0.41999999999999998
aF-0.53000000000000003
aF-0.14000000000000001
aI-15155
aI-168
aI-12572
aF668.84000000000003
aF724.96000000000004
aF-190.44
aa(lp40
g3
ag4
aI0
aF4.4447050094604492
aF-0.14000000000000001
aF-0.75
aF-0.050000000000000003
aI7005
aI-542
aI2250
aF594.32000000000005
aF796.72000000000003
aF-133.40000000000001
aa(lp41
g3
ag4
aI0
aF4.5446469783782959
aF-0.41999999999999998
aF-0.67000000000000004
aF0.070000000000000007
aI2245
aI7923
aI14640
aF664.24000000000001
aF733.24000000000001
aF-197.80000000000001
aa(lp42
g3
ag4
aI0
aF4.6560921669006348
aF-0.52000000000000002
aF-0.58999999999999997
aF0.050000000000000003
aI4073
aI20203
aI21197
aF704.72000000000003
aF591.55999999999995
aF-142.59999999999999
aa(lp43
g3
ag4
aI0
aF4.7737281322479248
aF-0.64000000000000001
aF-0.31
aF-0.02
aI-1684
aI20539
aI21312
aF621
aF389.16000000000003
aF34.960000000000001
aa(lp44
g3
ag4
aI0
aF4.919018030166626
aF-0.70999999999999996
aF0.070000000000000007
aF-0.35999999999999999
aI-8920
aI15234
aI16797
aF409.39999999999998
aF210.68000000000001
aF131.56
aa(lp45
g3
ag4
aI0
aF5.0445489883422852
aF-0.51000000000000001
aF0.39000000000000001
aF-0.47999999999999998
aI-12196
aI11713
aI13397
aF197.80000000000001
aF93.840000000000003
aF98.439999999999998
aa(lp46
g3
ag4
aI0
aF5.1675240993499756
aF-0.23000000000000001
aF0.72999999999999998
aF-0.59999999999999998
aI-12402
aI4169
aI8986
aF34.960000000000001
aF42.32
aF-11.960000000000001
aa(lp47
g3
ag4
aI0
aF5.3450360298156738
aF-0.12
aF0.84999999999999998
aF-0.60999999999999999
aI-4476
aI324
aI3666
aF9.1999999999999993
aF36.799999999999997
aF-49.68
aa(lp48
g3
ag4
aI0
aF5.4439010620117188
aF-0.089999999999999997
aF0.93999999999999995
aF-0.60999999999999999
aI3322
aI-11106
aI-3050
aF-2.7599999999999998
aF40.479999999999997
aF-61.640000000000001
aa(lp49
g3
ag4
aI0
aF5.544741153717041
aF-0.26000000000000001
aF1.04
aF-0.57999999999999996
aI9704
aI-19736
aI-17605
aF121.44
aF41.399999999999999
aF29.440000000000001
aa(lp50
g3
ag4
aI0
aF5.6512939929962158
aF-0.60999999999999999
aF0.83999999999999997
aF-0.34000000000000002
aI1505
aI-28609
aI-32422
aF455.39999999999998
aF124.2
aF47.840000000000003
aa(lp51
g3
ag4
aI0
aF5.7725141048431396
aF-0.60999999999999999
aF0.52000000000000002
aF-0.059999999999999998
aI-8935
aI-13285
aI-28396
aF701.96000000000004
aF357.88
aF-102.12
aa(lp52
g3
ag4
aI0
aF5.9100079536437988
aF-0.56000000000000005
aF0.12
aF0.070000000000000007
aI-12676
aI-5850
aI-18537
aF726.79999999999995
aF585.12
aF-209.75999999999999
aa(lp53
g3
ag4
aI0
aF6.044295072555542
aF-0.44
aF-0.34999999999999998
aF0.050000000000000003
aI-7791
aI-7213
aI-12602
aF668.84000000000003
aF731.39999999999998
aF-225.40000000000001
aa(lp54
g3
ag4
aI0
aF6.1536970138549805
aF-0.22
aF-0.56999999999999995
aF-0.01
aI6717
aI8430
aI-3314
aF635.72000000000003
aF763.60000000000002
aF-178.47999999999999
aa(lp55
g3
ag4
aI0
aF6.2987840175628662
aF-0.34000000000000002
aF-0.72999999999999998
aF0.029999999999999999
aI5222
aI-494
aI15618
aF635.72000000000003
aF761.75999999999999
aF-185.84
aa(lp56
g3
ag4
aI0
aF6.4453091621398926
aF-0.41999999999999998
aF-0.69999999999999996
aF0.050000000000000003
aI7561
aI11315
aI14952
aF695.51999999999998
aF666.08000000000004
aF-189.52000000000001
aa(lp57
g3
ag4
aI0
aF6.544281005859375
aF-0.65000000000000002
aF-0.5
aF0.080000000000000002
aI6895
aI18614
aI18012
aF707.48000000000002
aF506.92000000000002
aF-100.28
aa(lp58
g3
ag4
aI0
aF6.6511020660400391
aF-0.90000000000000002
aF-0.19
aF-0.14999999999999999
aI-3993
aI18643
aI17585
aF612.72000000000003
aF339.48000000000002
aF35.880000000000003
aa(lp59
g3
ag4
aI0
aF6.7936370372772217
aF-0.64000000000000001
aF0.089999999999999997
aF-0.29999999999999999
aI-8518
aI18439
aI14195
aF380.88
aF196.88
aF135.24000000000001
aa(lp60
g3
ag4
aI0
aF6.945112943649292
aF-0.39000000000000001
aF0.46000000000000002
aF-0.51000000000000001
aI-11711
aI6506
aI11769
aF173.88
aF99.359999999999999
aF103.95999999999999
aa(lp61
g3
ag4
aI0
aF7.0451569557189941
aF-0.26000000000000001
aF0.66000000000000003
aF-0.60999999999999999
aI-11574
aI10403
aI7690
aF52.439999999999998
aF46
aF1.8400000000000001
aa(lp62
g3
ag4
aI0
aF7.1700260639190674
aF-0.12
aF0.85999999999999999
aF-0.59999999999999998
aI-6780
aI-2822
aI3502
aF-11.960000000000001
aF36.799999999999997
aF-74.519999999999996
aa(lp63
g3
ag4
aI0
aF7.3440630435943604
aF-0.10000000000000001
aF0.91000000000000003
aF-0.66000000000000003
aI3460
aI-4127
aI-1929
aF-9.1999999999999993
aF34.960000000000001
aF-73.599999999999994
aa(lp64
g3
ag4
aI0
aF7.4448699951171875
aF-0.23999999999999999
aF1.01
aF-0.66000000000000003
aI10903
aI-18678
aI-12587
aF62.560000000000002
aF34.039999999999999
aF-8.2799999999999994
aa(lp65
g3
ag4
aI0
aF7.5439400672912598
aF-0.47999999999999998
aF0.85999999999999999
aF-0.54000000000000004
aI7796
aI-24415
aI-26322
aF313.72000000000003
aF91.079999999999998
aF83.719999999999999
aa(lp66
g3
ag4
aI0
aF7.676361083984375
aF-0.67000000000000004
aF0.52000000000000002
aF-0.22
aI-4287
aI-16550
aI-26431
aF630.20000000000005
aF270.48000000000002
aF-16.559999999999999
aa(lp67
g3
ag4
aI0
aF7.843994140625
aF-0.69999999999999996
aF0.14999999999999999
aF-0
aI-10679
aI-8161
aI-20848
aF728.63999999999999
aF481.16000000000003
aF-157.31999999999999
aa(lp68
g3
ag4
aI0
aF7.9447650909423828
aF-0.58999999999999997
aF-0.25
aF-0.02
aI-12752
aI-6289
aI-12185
aF705.63999999999999
aF650.44000000000005
aF-193.19999999999999
aa(lp69
g3
ag4
aI0
aF8.0438859462738037
aF-0.37
aF-0.41999999999999998
aF-0.040000000000000001
aI5775
aI8067
aI-124
aF675.27999999999997
aF701.96000000000004
aF-164.68000000000001
aa(lp70
g3
ag4
aI0
aF8.1689281463623047
aF-0.37
aF-0.67000000000000004
aF-0.040000000000000001
aI3515
aI1243
aI8559
aF671.60000000000002
aF701.96000000000004
aF-175.72
aa(lp71
g3
ag4
aI0
aF8.3451240062713623
aF-0.47999999999999998
aF-0.66000000000000003
aF0.01
aI10342
aI13076
aI12859
aF701.03999999999996
aF639.39999999999998
aF-165.59999999999999
aa(lp72
g3
ag4
aI0
aF8.4451379776000977
aF-0.64000000000000001
aF-0.47999999999999998
aF0.050000000000000003
aI9375
aI17468
aI15028
aF692.75999999999999
aF517.96000000000004
aF-71.760000000000005
aa(lp73
g3
ag4
aI0
aF8.5450999736785889
aF-0.76000000000000001
aF-0.20000000000000001
aF-0.17000000000000001
aI-3123
aI18203
aI16135
aF594.32000000000005
aF375.36000000000001
aF61.640000000000001
aa(lp74
g3
ag4
aI0
aF8.6901700496673584
aF-0.55000000000000004
aF-0
aF-0.32000000000000001
aI-9893
aI19628
aI13649
aF390.07999999999998
aF239.19999999999999
aF151.80000000000001
aa(lp75
g3
ag4
aI0
aF8.8448209762573242
aF-0.47999999999999998
aF0.5
aF-0.57999999999999996
aI-12936
aI4685
aI11912
aF175.72
aF118.68000000000001
aF115.92
aa(lp76
g3
ag4
aI0
aF8.9446971416473389
aF-0.26000000000000001
aF0.66000000000000003
aF-0.57999999999999996
aI-12513
aI10004
aI10702
aF64.400000000000006
aF46.920000000000002
aF16.559999999999999
aa(lp77
g3
ag4
aI0
aF9.0488641262054443
aF-0.080000000000000002
aF0.84999999999999998
aF-0.58999999999999997
aI-8156
aI120
aI5366
aF-23.920000000000002
aF43.240000000000002
aF-83.719999999999999
aa(lp78
g3
ag4
aI0
aF9.1636641025543213
aF0.01
aF0.91000000000000003
aF-0.53000000000000003
aI988
aI-666
aI192
aF-39.560000000000002
aF46
aF-108.56
aa(lp79
g3
ag4
aI0
aF9.2900700569152832
aF0.029999999999999999
aF0.95999999999999996
aF-0.56000000000000005
aI8303
aI-12322
aI-6292
aF-26.68
aF43.240000000000002
aF-85.560000000000002
aa(lp80
g3
ag4
aI0
aF9.4451601505279541
aF-0.25
aF0.97999999999999998
aF-0.56999999999999995
aI10985
aI-21221
aI-18154
aF128.80000000000001
aF43.240000000000002
aF35.880000000000003
aa(lp81
g3
ag4
aI0
aF9.5638461112976074
aF-0.63
aF0.81000000000000005
aF-0.35999999999999999
aI2395
aI-24380
aI-27069
aF438.83999999999997
aF132.47999999999999
aF68.079999999999998
aa(lp82
g3
ag4
aI0
aF9.6826009750366211
aF-0.67000000000000004
aF0.5
aF-0.14000000000000001
aI-6982
aI-11034
aI-27052
aF685.39999999999998
aF337.63999999999999
aF-75.439999999999998
aa(lp83
g3
ag4
aI0
aF9.8452451229095459
aF-0.56999999999999995
aF0.050000000000000003
aF-0.02
aI-10795
aI-4271
aI-19640
aF721.27999999999997
aF572.24000000000001
aF-177.56
aa(lp84
g3
ag4
aI0
aF9.9449100494384766
aF-0.40000000000000002
aF-0.37
aF-0.040000000000000001
aI-6199
aI-2393
aI-11759
aF668.84000000000003
aF710.24000000000001
aF-174.80000000000001
aa(lp85
g3
ag4
aI0
aF10.0887770652771
aF-0.28999999999999998
aF-0.55000000000000004
aF-0.050000000000000003
aI3442
aI5103
aI2104
aF632.96000000000004
aF759.91999999999996
aF-157.31999999999999
aa(lp86
g3
ag4
aI0
aF10.244481086730957
aF-0.35999999999999999
aF-0.71999999999999997
aF-0.050000000000000003
aI4074
aI-466
aI13931
aF666.08000000000004
aF712.08000000000004
aF-163.75999999999999
aa(lp87
g3
ag4
aI0
aF10.344532012939453
aF-0.48999999999999999
aF-0.66000000000000003
aF0.029999999999999999
aI7133
aI8634
aI12989
aF694.60000000000002
aF652.27999999999997
aF-160.08000000000001
aa(lp88
g3
ag4
aI0
aF10.444659948348999
aF-0.65000000000000002
aF-0.47999999999999998
aF0.059999999999999998
aI9150
aI15713
aI16631
aF708.39999999999998
aF525.32000000000005
aF-101.2
aa(lp89
g3
ag4
aI0
aF10.559895038604736
aF-0.76000000000000001
aF-0.20999999999999999
aF-0.16
aI-4911
aI12890
aI19880
aF617.32000000000005
aF370.75999999999999
aF39.560000000000002
aa(lp90
g3
ag4
aI0
aF10.682505130767822
aF-0.90000000000000002
aF0.029999999999999999
aF-0.28999999999999998
aI-3514
aI23309
aI16973
aF454.48000000000002
aF207
aF105.8
aa(lp91
g3
ag4
aI0
aF10.844999074935913
aF-0.46000000000000002
aF0.34999999999999998
aF-0.45000000000000001
aI-13791
aI5654
aI10759
aF154.56
aF107.64
aF103.04000000000001
aa(lp92
g3
ag4
aI0
aF10.944062948226929
aF-0.51000000000000001
aF0.68999999999999995
aF-0.56999999999999995
aI-10511
aI4985
aI9088
aF56.119999999999997
aF49.68
aF11.960000000000001
aa(lp93
g3
ag4
aI0
aF11.068767070770264
aF-0.17000000000000001
aF0.82999999999999996
aF-0.51000000000000001
aI-7458
aI449
aI6107
aF-34.960000000000001
aF51.520000000000003
aF-82.799999999999997
aa(lp94
g3
ag4
aI0
aF11.191030979156494
aF-0.059999999999999998
aF0.90000000000000002
aF-0.54000000000000004
aI2506
aI-3819
aI-1673
aF-41.399999999999999
aF56.119999999999997
aF-91.079999999999998
aa(lp95
g3
ag4
aI0
aF11.344664096832275
aF-0.080000000000000002
aF1.02
aF-0.56999999999999995
aI9583
aI-18042
aI-10336
aF-3.6800000000000002
aF46
aF-48.759999999999998
aa(lp96
g3
ag4
aI0
aF11.445223093032837
aF-0.34000000000000002
aF0.98999999999999999
aF-0.52000000000000002
aI9152
aI-20877
aI-25046
aF223.56
aF60.719999999999999
aF69
aa(lp97
g3
ag4
aI0
aF11.560070037841797
aF-0.60999999999999999
aF0.66000000000000003
aF-0.27000000000000002
aI-2834
aI-19873
aI-31517
aF556.60000000000002
aF203.31999999999999
aF27.600000000000001
aa(lp98
g3
ag4
aI0
aF11.683840036392212
aF-0.62
aF0.29999999999999999
aF-0.10000000000000001
aI-9966
aI-6514
aI-21320
aF715.75999999999999
aF436.07999999999998
aF-115.92
aa(lp99
g3
ag4
aI0
aF11.84479808807373
aF-0.64000000000000001
aF-0.14000000000000001
aF-0.050000000000000003
aI-9954
aI-6564
aI-11747
aF716.67999999999995
aF587.88
aF-163.75999999999999
aa(lp100
g3
ag4
aI0
aF11.946109056472778
aF-0.52000000000000002
aF-0.45000000000000001
aF-0.080000000000000002
aI-2744
aI2425
aI-7541
aF691.84000000000003
aF677.12
aF-179.40000000000001
aa(lp101
g3
ag4
aI0
aF12.087603092193604
aF-0.31
aF-0.73999999999999999
aF0.01
aI2209
aI5152
aI-9563
aF629.27999999999997
aF748.88
aF-134.31999999999999
aa(lp102
g3
ag4
aI0
aF12.244001150131226
aF-0.42999999999999999
aF-0.75
aF0.02
aI608
aI-720
aI12356
aF674.36000000000001
aF689.08000000000004
aF-147.19999999999999
aa(lp103
g3
ag4
aI0
aF12.344803094863892
aF-0.52000000000000002
aF-0.68999999999999995
aF0.080000000000000002
aI4850
aI5504
aI16761
aF686.32000000000005
aF655.03999999999996
aF-136.16
aa(lp104
g3
ag4
aI0
aF12.444249153137207
aF-0.68000000000000005
aF-0.58999999999999997
aF-0.029999999999999999
aI2229
aI18500
aI15667
aF695.51999999999998
aF507.83999999999997
aF-70.840000000000003
aa(lp105
g3
ag4
aI0
aF12.58025598526001
aF-0.70999999999999996
aF-0.34000000000000002
aF-0.16
aI-2068
aI21630
aI15830
aF587.88
aF369.83999999999997
aF67.159999999999997
aa(lp106
g3
ag4
aI0
aF12.743957996368408
aF-0.58999999999999997
aF0.11
aF-0.41999999999999998
aI-12943
aI17406
aI14895
aF337.63999999999999
aF219.88
aF162.84
aa(lp107
g3
ag4
aI0
aF12.843979120254517
aF-0.31
aF0.31
aF-0.55000000000000004
aI-15101
aI12287
aI10826
aF149.03999999999999
aF93.840000000000003
aF93.840000000000003
aa(lp108
g3
ag4
aI0
aF12.94881010055542
aF-0.14000000000000001
aF0.70999999999999996
aF-0.52000000000000002
aI-13590
aI5185
aI8776
aF24.84
aF33.119999999999997
aF-37.719999999999999
aa(lp109
g3
ag4
aI0
aF13.071256160736084
aF0.01
aF0.83999999999999997
aF-0.56999999999999995
aI-5867
aI1465
aI4683
aF-42.32
aF38.640000000000001
aF-129.72
aa(lp110
g3
ag4
aI0
aF13.194744110107422
aF0.070000000000000007
aF0.91000000000000003
aF-0.53000000000000003
aI1789
aI-2890
aI-497
aF-52.439999999999998
aF45.079999999999998
aF-135.24000000000001
aa(lp111
g3
ag4
aI0
aF13.344411134719849
aF-0.070000000000000007
aF0.94999999999999996
aF-0.53000000000000003
aI8553
aI-25109
aI-8487
aF-20.239999999999998
aF42.32
aF-75.439999999999998
aa(lp112
g3
ag4
aI0
aF13.456393957138062
aF-0.38
aF0.93000000000000005
aF-0.51000000000000001
aI9578
aI-21199
aI-21906
aF193.19999999999999
aF46.920000000000002
aF57.039999999999999
aa(lp113
g3
ag4
aI0
aF13.569884061813354
aF-0.54000000000000004
aF0.60999999999999999
aF-0.29999999999999999
aI-1463
aI-22247
aI-28498
aF515.20000000000005
aF160.08000000000001
aF38.640000000000001
aa(lp114
g3
ag4
aI0
aF13.688754081726074
aF-0.63
aF0.32000000000000001
aF-0.070000000000000007
aI-9731
aI-12135
aI-21976
aF715.75999999999999
aF378.12
aF-126.95999999999999
aa(lp115
g3
ag4
aI0
aF13.844959020614624
aF-0.60999999999999999
aF-0.14999999999999999
aF0.029999999999999999
aI-9691
aI-7151
aI-15614
aF728.63999999999999
aF575.91999999999996
aF-207
aa(lp116
g3
ag4
aI0
aF13.969058036804199
aF-0.46999999999999997
aF-0.42999999999999999
aF0.01
aI-7680
aI-3181
aI-8208
aF691.84000000000003
aF687.24000000000001
aF-227.24000000000001
aa(lp117
g3
ag4
aI0
aF14.14488697052002
aF-0.37
aF-0.62
aF0.040000000000000001
aI1438
aI2499
aI129
aF666.08000000000004
aF737.84000000000003
aF-226.31999999999999
aa(lp118
g3
ag4
aI0
aF14.243780136108398
aF-0.34999999999999998
aF-0.73999999999999999
aF0.050000000000000003
aI5560
aI1870
aI5465
aF676.20000000000005
aF723.12
aF-230.91999999999999
aa(lp119
g3
ag4
aI0
aF14.344836950302124
aF-0.40999999999999998
aF-0.69999999999999996
aF0.10000000000000001
aI10494
aI7658
aI9690
aF696.44000000000005
aF683.55999999999995
aF-225.40000000000001
aa(lp120
g3
ag4
aI0
aF14.44862699508667
aF-0.63
aF-0.52000000000000002
aF0.16
aI6172
aI12637
aI15712
aF724.03999999999996
aF571.32000000000005
aF-182.16
aa(lp121
g3
ag4
aI0
aF14.572482109069824
aF-0.77000000000000002
aF-0.35999999999999999
aF0.059999999999999998
aI2426
aI21687
aI17265
aF679.88
aF416.75999999999999
aF-46
aa(lp122
g3
ag4
aI0
aF14.744431018829346
aF-0.64000000000000001
aF-0.10000000000000001
aF-0.28999999999999998
aI-7871
aI27276
aI17719
aF461.83999999999997
aF266.80000000000001
aF128.80000000000001
aa(lp123
g3
ag4
aI0
aF14.844162940979004
aF-0.58999999999999997
aF0.32000000000000001
aF-0.53000000000000003
aI-11626
aI14091
aI11791
aF214.36000000000001
aF139.84
aF132.47999999999999
aa(lp124
g3
ag4
aI0
aF14.95262598991394
aF-0.23000000000000001
aF0.57999999999999996
aF-0.53000000000000003
aI-16475
aI11607
aI9508
aF35.880000000000003
aF62.560000000000002
aF16.559999999999999
aa(lp125
g3
ag4
aI0
aF15.065152168273926
aF0.01
aF0.85999999999999999
aF-0.57999999999999996
aI-10973
aI4199
aI4529
aF-47.840000000000003
aF40.479999999999997
aF-121.44
aa(lp126
g3
ag4
aI0
aF15.207308053970337
aF0.01
aF0.90000000000000002
aF-0.60999999999999999
aI872
aI-1422
aI116
aF-53.359999999999999
aF46
aF-138
aa(lp127
g3
ag4
aI0
aF15.344830989837646
aF-0.01
aF0.95999999999999996
aF-0.65000000000000002
aI8967
aI-12756
aI-5094
aF-41.399999999999999
aF47.840000000000003
aF-102.12
aa(lp128
g3
ag4
aI0
aF15.444179058074951
aF-0.16
aF1.01
aF-0.64000000000000001
aI13578
aI-19807
aI-17008
aF93.840000000000003
aF51.520000000000003
aF35.880000000000003
aa(lp129
g3
ag4
aI0
aF15.56876802444458
aF-0.41999999999999998
aF0.78000000000000003
aF-0.48999999999999999
aI3096
aI-22605
aI-27675
aF428.72000000000003
aF149.96000000000001
aF85.560000000000002
aa(lp130
g3
ag4
aI0
aF15.744946002960205
aF-0.71999999999999997
aF0.40999999999999998
aF-0.17000000000000001
aI-13118
aI-23022
aI-22149
aF705.63999999999999
aF345
aF-124.2
aa(lp131
g3
ag4
aI0
aF15.844383955001831
aF-0.65000000000000002
aF0.050000000000000003
aF0.029999999999999999
aI-6772
aI-1690
aI-14454
aF742.44000000000005
aF528.08000000000004
aF-236.44
aa(lp132
g3
ag4
aI0
aF15.964930057525635
aF-0.56000000000000005
aF-0.40000000000000002
aF0.11
aI-8142
aI-3508
aI-12926
aF702.88
aF668.84000000000003
aF-245.63999999999999
aa(lp133
g3
ag4
aI0
aF16.085098028182983
aF-0.31
aF-0.55000000000000004
aF0.059999999999999998
aI-62
aI5722
aI-12745
aF648.60000000000002
aF752.55999999999995
aF-185.84
aa(lp134
g3
ag4
aI0
aF16.245254039764404
aF-0.32000000000000001
aF-0.68999999999999995
aF0.02
aI1859
aI-1387
aI5349
aF654.12
aF756.24000000000001
aF-212.52000000000001
aa(lp135
g3
ag4
aI0
aF16.347512006759644
aF-0.35999999999999999
aF-0.75
aF0.11
aI5774
aI2368
aI10220
aF660.55999999999995
aF742.44000000000005
aF-216.19999999999999
aa(lp136
g3
ag4
aI0
aF16.490154027938843
aF-0.48999999999999999
aF-0.68000000000000005
aF0.17000000000000001
aI9127
aI10782
aI12621
aF704.72000000000003
aF645.84000000000003
aF-201.47999999999999
aa(lp137
g3
ag4
aI0
aF16.644093990325928
aF-0.71999999999999997
aF-0.46999999999999997
aF0.050000000000000003
aI5657
aI19862
aI16964
aF712.08000000000004
aF485.75999999999999
aF-104.88
aa(lp138
g3
ag4
aI0
aF16.744395971298218
aF-0.67000000000000004
aF-0.28999999999999998
aF-0.11
aI-536
aI27450
aI17967
aF559.36000000000001
aF328.44
aF86.480000000000004
aa(lp139
g3
ag4
aI0
aF16.84501314163208
aF-0.46000000000000002
aF0.070000000000000007
aF-0.41999999999999998
aI-13119
aI20740
aI14184
aF268.63999999999999
aF177.56
aF150.88
aa(lp140
g3
ag4
aI0
aF16.957498073577881
aF-0.25
aF0.48999999999999999
aF-0.54000000000000004
aI-16956
aI7972
aI10961
aF70.840000000000003
aF73.599999999999994
aF46.920000000000002
aa(lp141
g3
ag4
aI0
aF17.078881978988647
aF-0.080000000000000002
aF0.77000000000000002
aF-0.64000000000000001
aI-12733
aI460
aI6488
aF-31.280000000000001
aF45.079999999999998
aF-86.480000000000004
aa(lp142
g3
ag4
aI0
aF17.244748115539551
aF0.040000000000000001
aF0.80000000000000004
aF-0.60999999999999999
aI-2869
aI-2600
aI2534
aF-49.68
aF46
aF-125.12
aa(lp143
g3
ag4
aI0
aF17.343639135360718
aF0.040000000000000001
aF0.91000000000000003
aF-0.56999999999999995
aI5656
aI-3895
aI-3163
aF-50.600000000000001
aF0.92000000000000004
aF-115.92
aa(lp144
g3
ag4
aI0
aF17.471207141876221
aF-0.070000000000000007
aF0.95999999999999996
aF-0.59999999999999998
aI10626
aI-19335
aI-11372
aF21.16
aF47.840000000000003
aF-22.079999999999998
aa(lp145
g3
ag4
aI0
aF17.589962005615234
aF-0.28000000000000003
aF0.91000000000000003
aF-0.48999999999999999
aI8423
aI-29133
aI-24133
aF265.88
aF76.359999999999999
aF81.879999999999995
aa(lp146
g3
ag4
aI0
aF17.744987010955811
aF-0.73999999999999999
aF0.44
aF-0.14999999999999999
aI-13720
aI-23010
aI-27123
aF672.51999999999998
aF264.04000000000002
aF-93.840000000000003
aa(lp147
g3
ag4
aI0
aF17.84874415397644
aF-0.63
aF0.14999999999999999
aF0.01
aI-13741
aI-3058
aI-19900
aF740.60000000000002
aF497.72000000000003
aF-224.47999999999999
aa(lp148
g3
ag4
aI0
aF17.971369028091431
aF-0.52000000000000002
aF-0.22
aF0.11
aI-8294
aI-3961
aI-12949
aF703.79999999999995
aF667
aF-233.68000000000001
aa(lp149
g3
ag4
aI0
aF18.144178152084351
aF-0.37
aF-0.51000000000000001
aF-0.01
aI-2915
aI573
aI-7130
aF660.55999999999995
aF745.20000000000005
aF-207
aa(lp150
g3
ag4
aI0
aF18.243939161300659
aF-0.27000000000000002
aF-0.81000000000000005
aF0.01
aI1978
aI-801
aI4802
aF638.48000000000002
aF772.79999999999995
aF-206.08000000000001
aa(lp151
g3
ag4
aI0
aF18.344160079956055
aF-0.29999999999999999
aF-0.77000000000000002
aF0.02
aI8186
aI8551
aI4023
aF675.27999999999997
aF724.96000000000004
aF-222.63999999999999
aa(lp152
g3
ag4
aI0
aF18.482707023620605
aF-0.46000000000000002
aF-0.70999999999999996
aF0.070000000000000007
aI5258
aI13488
aI15688
aF691.84000000000003
aF676.20000000000005
aF-181.24000000000001
aa(lp153
g3
ag4
aI0
aF18.64377498626709
aF-0.67000000000000004
aF-0.51000000000000001
aF0.02
aI178
aI16043
aI19204
aF695.51999999999998
aF521.63999999999999
aF-69
aa(lp154
g3
ag4
aI0
aF18.743529081344604
aF-0.70999999999999996
aF-0.26000000000000001
aF-0.12
aI-2597
aI21996
aI17573
aF564.88
aF357.88
aF86.480000000000004
aa(lp155
g3
ag4
aI0
aF18.862668991088867
aF-0.62
aF0.089999999999999997
aF-0.40999999999999998
aI-14642
aI20389
aI13746
aF324.75999999999999
aF197.80000000000001
aF156.40000000000001
aa(lp156
g3
ag4
aI0
aF18.976293087005615
aF-0.47999999999999998
aF0.42999999999999999
aF-0.56000000000000005
aI-13521
aI5563
aI9176
aF116.84
aF99.359999999999999
aF92
aa(lp157
g3
ag4
aI0
aF19.14477014541626
aF-0.089999999999999997
aF0.82999999999999996
aF-0.57999999999999996
aI-13575
aI6601
aI7196
aF-3.6800000000000002
aF54.280000000000001
aF-30.359999999999999
aa(lp158
g3
ag4
aI0
aF19.243952035903931
aF0.01
aF0.88
aF-0.63
aI-5998
aI1915
aI4154
aF-23
aF44.159999999999997
aF-73.599999999999994
aa(lp159
g3
ag4
aI0
aF19.356399059295654
aF0.050000000000000003
aF0.92000000000000004
aF-0.64000000000000001
aI2159
aI-5490
aI-1054
aF-44.159999999999997
aF46.920000000000002
aF-107.64
aa(lp160
g3
ag4
aI0
aF19.471065998077393
aF-0.02
aF1
aF-0.64000000000000001
aI11409
aI-18312
aI-9075
aF9.1999999999999993
aF48.759999999999998
aF-29.440000000000001
aa(lp161
g3
ag4
aI0
aF19.644921064376831
aF-0.41999999999999998
aF0.91000000000000003
aF-0.62
aI10711
aI-24885
aI-23913
aF264.04000000000002
aF92.920000000000002
aF95.680000000000007
aa(lp162
g3
ag4
aI0
aF19.744827032089233
aF-0.46999999999999997
aF0.55000000000000004
aF-0.35999999999999999
aI981
aI-23125
aI-26784
aF561.20000000000005
aF249.31999999999999
aF51.520000000000003
aa(lp163
g3
ag4
aI0
aF19.843577146530151
aF-0.68999999999999995
aF0.34000000000000002
aF-0.14000000000000001
aI-9859
aI-11048
aI-21227
aF724.03999999999996
aF456.31999999999999
aF-139.84
aa(lp164
g3
ag4
aI0
aF19.991341114044189
aF-0.58999999999999997
aF-0.089999999999999997
aF-0.01
aI-13643
aI-8076
aI-11314
aF718.51999999999998
aF621
aF-226.31999999999999
aa(lp165
g3
ag4
aI0
aF20.14389705657959
aF-0.5
aF-0.45000000000000001
aF0.029999999999999999
aI-5114
aI1028
aI-5835
aF690
aF701.96000000000004
aF-227.24000000000001
aa(lp166
g3
ag4
aI0
aF20.244753122329712
aF-0.34999999999999998
aF-0.68999999999999995
aF0.040000000000000001
aI4548
aI759
aI-3785
aF667
aF730.48000000000002
aF-200.56
aa(lp167
g3
ag4
aI0
aF20.368963003158569
aF-0.41999999999999998
aF-0.71999999999999997
aF0.040000000000000001
aI1767
aI2125
aI10595
aF670.67999999999995
aF731.39999999999998
aF-218.03999999999999
aa(lp168
g3
ag4
aI0
aF20.544581174850464
aF-0.48999999999999999
aF-0.68999999999999995
aF0.14999999999999999
aI7594
aI5854
aI11797
aF702.88
aF655.96000000000004
aF-209.75999999999999
aa(lp169
g3
ag4
aI0
aF20.643938064575195
aF-0.66000000000000003
aF-0.53000000000000003
aF0.13
aI5123
aI11471
aI15125
aF729.55999999999995
aF522.55999999999995
aF-164.68000000000001
aa(lp170
g3
ag4
aI0
aF20.744416952133179
aF-0.75
aF-0.33000000000000002
aF0.070000000000000007
aI1814
aI14582
aI18385
aF669.75999999999999
aF368
aF-30.359999999999999
aa(lp171
g3
ag4
aI0
aF20.848948955535889
aF-0.80000000000000004
aF-0.080000000000000002
aF-0.10000000000000001
aI-3997
aI12180
aI16807
aF531.75999999999999
aF219.88
aF65.319999999999993
aa(lp172
g3
ag4
aI0
aF20.97011399269104
aF-0.68000000000000005
aF0.26000000000000001
aF-0.28999999999999998
aI-6439
aI16497
aI14467
aF337.63999999999999
aF103.04000000000001
aF92.920000000000002
aa(lp173
g3
ag4
aI0
aF21.144794940948486
aF-0.51000000000000001
aF0.54000000000000004
aF-0.39000000000000001
aI-8297
aI1601
aI11025
aF246.56
aF61.640000000000001
aF72.680000000000007
aa(lp174
g3
ag4
aI0
aF21.244400024414062
aF-0.39000000000000001
aF0.72999999999999998
aF-0.42999999999999999
aI-5788
aI375
aI9089
aF141.68000000000001
aF29.440000000000001
aF21.16
aa(lp175
g3
ag4
aI0
aF21.343749046325684
aF-0.23999999999999999
aF0.84999999999999998
aF-0.40000000000000002
aI-3827
aI662
aI6512
aF70.840000000000003
aF23
aF-20.239999999999998
aa(lp176
g3
ag4
aI0
aF21.465002059936523
aF-0.13
aF0.90000000000000002
aF-0.35999999999999999
aI-1533
aI-1961
aI2914
aF32.200000000000003
aF33.119999999999997
aF-37.719999999999999
aa(lp177
g3
ag4
aI0
aF21.607534170150757
aF-0.089999999999999997
aF0.91000000000000003
aF-0.33000000000000002
aI237
aI-2595
aI295
aF29.440000000000001
aF32.200000000000003
aF-30.359999999999999
aa(lp178
g3
ag4
aI0
aF21.743524074554443
aF-0.040000000000000001
aF0.91000000000000003
aF-0.28999999999999998
aI676
aI-45
aI-798
aF39.560000000000002
aF37.719999999999999
aF-23.920000000000002
aa(lp179
g3
ag4
aI0
aF21.843860149383545
aF-0.01
aF0.91000000000000003
aF-0.27000000000000002
aI180
aI271
aI-698
aF41.399999999999999
aF32.200000000000003
aF-26.68
aa(lp180
g3
ag4
aI0
aF21.944407939910889
aF0
aF0.92000000000000004
aF-0.27000000000000002
aI101
aI743
aI-581
aF49.68
aF30.359999999999999
aF-26.68
aa(lp181
g3
ag4
aI0
aF22.05757212638855
aF0.01
aF0.92000000000000004
aF-0.26000000000000001
aI160
aI1062
aI-154
aF46.920000000000002
aF33.119999999999997
aF-26.68
aa(lp182
g3
ag4
aI0
aF22.177610158920288
aF0.02
aF0.92000000000000004
aF-0.26000000000000001
aI146
aI816
aI188
aF43.240000000000002
aF31.280000000000001
aF-29.440000000000001
aa(lp183
g3
ag4
aI0
aF22.344568967819214
aF0.02
aF0.92000000000000004
aF-0.25
aI32
aI136
aI218
aF39.560000000000002
aF29.440000000000001
aF-29.440000000000001
aa(lp184
g3
ag4
aI0
aF22.444329023361206
aF0.01
aF0.91000000000000003
aF-0.25
aI197
aI245
aI39
aF41.399999999999999
aF30.359999999999999
aF-30.359999999999999
aa(lp185
g3
ag4
aI0
aF22.54448413848877
aF0.01
aF0.92000000000000004
aF-0.26000000000000001
aI318
aI-179
aI-62
aF42.32
aF34.039999999999999
aF-28.52
aa(lp186
g3
ag4
aI0
aF22.644240140914917
aF0.01
aF0.91000000000000003
aF-0.25
aI343
aI395
aI-189
aF42.32
aF34.039999999999999
aF-29.440000000000001
aa(lp187
g3
ag4
aI0
aF22.778886079788208
aF0.01
aF0.91000000000000003
aF-0.26000000000000001
aI183
aI1098
aI-434
aF44.159999999999997
aF32.200000000000003
aF-30.359999999999999
aa(lp188
g3
ag4
aI0
aF22.943889141082764
aF0.02
aF0.90000000000000002
aF-0.26000000000000001
aI513
aI2047
aI-198
aF40.479999999999997
aF32.200000000000003
aF-31.280000000000001
aa(lp189
g3
ag4
aI0
aF23.04488205909729
aF0.02
aF0.90000000000000002
aF-0.27000000000000002
aI345
aI540
aI-326
aF35.880000000000003
aF33.119999999999997
aF-36.799999999999997
aa(lp190
g3
ag4
aI0
aF23.144201993942261
aF0.01
aF0.91000000000000003
aF-0.27000000000000002
aI170
aI-482
aI-112
aF39.560000000000002
aF30.359999999999999
aF-33.119999999999997
aa(lp191
g3
ag4
aI0
aF23.243376970291138
aF0.01
aF0.91000000000000003
aF-0.26000000000000001
aI124
aI147
aI58
aF41.399999999999999
aF31.280000000000001
aF-36.799999999999997
aa(lp192
g3
ag4
aI0
aF23.362591028213501
aF0.01
aF0.91000000000000003
aF-0.26000000000000001
aI100
aI-39
aI106
aF41.399999999999999
aF29.440000000000001
aF-34.039999999999999
aa(lp193
g3
ag4
aI0
aF23.544587135314941
aF0
aF0.91000000000000003
aF-0.26000000000000001
aI12
aI-24
aI122
aF39.560000000000002
aF28.52
aF-36.799999999999997
aa(lp194
g3
ag4
aI0
aF23.643717050552368
aF-0
aF0.92000000000000004
aF-0.25
aI-30
aI105
aI34
aF40.479999999999997
aF28.52
aF-34.039999999999999
aa(lp195
g3
ag4
aI0
aF23.74358606338501
aF-0
aF0.92000000000000004
aF-0.25
aI5
aI283
aI82
aF37.719999999999999
aF32.200000000000003
aF-34.039999999999999
aa(lp196
g3
ag4
aI0
aF23.844066143035889
aF0
aF0.92000000000000004
aF-0.26000000000000001
aI101
aI102
aI-74
aF40.479999999999997
aF28.52
aF-34.960000000000001
aa(lp197
g3
ag4
aI0
aF23.943801164627075
aF0.01
aF0.92000000000000004
aF-0.26000000000000001
aI129
aI395
aI86
aF38.640000000000001
aF29.440000000000001
aF-34.960000000000001
aa(lp198
g3
ag4
aI0
aF24.05140209197998
aF0
aF0.92000000000000004
aF-0.26000000000000001
aI194
aI167
aI-9
aF42.32
aF32.200000000000003
aF-35.880000000000003
aa(lp199
g3
ag4
aI0
aF24.166423082351685
aF0
aF0.92000000000000004
aF-0.27000000000000002
aI99
aI119
aI5
aF36.799999999999997
aF27.600000000000001
aF-35.880000000000003
aa(lp200
g3
ag4
aI0
aF24.344509124755859
aF0
aF0.92000000000000004
aF-0.26000000000000001
aI139
aI-24
aI-11
aF37.719999999999999
aF31.280000000000001
aF-35.880000000000003
aa(lp201
g3
ag4
aI0
aF24.444355010986328
aF0
aF0.92000000000000004
aF-0.26000000000000001
aI138
aI85
aI12
aF39.560000000000002
aF29.440000000000001
aF-33.119999999999997
aa(lp202
g3
ag4
aI0
aF24.544170141220093
aF-0
aF0.92000000000000004
aF-0.26000000000000001
aI78
aI36
aI6
aF36.799999999999997
aF29.440000000000001
aF-39.560000000000002
aa(lp203
g3
ag4
aI0
aF24.643589019775391
aF0
aF0.92000000000000004
aF-0.26000000000000001
aI58
aI-123
aI134
aF39.560000000000002
aF27.600000000000001
aF-36.799999999999997
aa(lp204
g3
ag4
aI0
aF24.750120162963867
aF0.01
aF0.91000000000000003
aF-0.26000000000000001
aI177
aI-71
aI54
aF37.719999999999999
aF29.440000000000001
aF-38.640000000000001
aa(lp205
g3
ag4
aI0
aF24.853799104690552
aF0.01
aF0.92000000000000004
aF-0.25
aI136
aI27
aI107
aF37.719999999999999
aF30.359999999999999
aF-34.960000000000001
aa(lp206
g3
ag4
aI0
aF24.976454019546509
aF0.01
aF0.92000000000000004
aF-0.25
aI126
aI116
aI34
aF35.880000000000003
aF32.200000000000003
aF-35.880000000000003
aa(lp207
g3
ag4
aI0
aF25.143618106842041
aF0
aF0.92000000000000004
aF-0.25
aI99
aI144
aI2
aF37.719999999999999
aF30.359999999999999
aF-34.039999999999999
aa.