(lp1
(lp2
S'Derek'
p3
aS'bicep curl'
p4
aI0
aF0
aF0.67000000000000004
aF0.29999999999999999
aF-0.94999999999999996
aI12839
aI640
aI1951
aF253
aF265.88
aF106.72
aa(lp5
g3
ag4
aI0
aF0.16169404983520508
aF0.67000000000000004
aF0.16
aF-0.98999999999999999
aI10768
aI1000
aI1287
aF257.60000000000002
aF279.68000000000001
aF112.23999999999999
aa(lp6
g3
ag4
aI0
aF0.25158500671386719
aF0.65000000000000002
aF0.059999999999999998
aF-1.03
aI9533
aI729
aI532
aF259.44
aF296.24000000000001
aF117.76000000000001
aa(lp7
g3
ag4
aI0
aF0.36754107475280762
aF0.65000000000000002
aF-0.01
aF-1.05
aI10393
aI1895
aI556
aF262.19999999999999
aF300.83999999999997
aF118.68000000000001
aa(lp8
g3
ag4
aI0
aF0.48266410827636719
aF0.62
aF-0.059999999999999998
aF-1.05
aI10124
aI576
aI51
aF267.72000000000003
aF313.72000000000003
aF125.12
aa(lp9
g3
ag4
aI0
aF0.6421821117401123
aF0.58999999999999997
aF-0.10000000000000001
aF-1.0600000000000001
aI9432
aI-292
aI116
aF278.75999999999999
aF322.92000000000002
aF126.04000000000001
aa(lp10
g3
ag4
aI0
aF0.74205207824707031
aF0.56999999999999995
aF-0.14000000000000001
aF-1.0700000000000001
aI8893
aI199
aI377
aF289.80000000000001
aF323.83999999999997
aF125.12
aa(lp11
g3
ag4
aI0
aF0.84527993202209473
aF0.53000000000000003
aF-0.14999999999999999
aF-1.0700000000000001
aI8649
aI234
aI65
aF299.92000000000002
aF323.83999999999997
aF124.2
aa(lp12
g3
ag4
aI0
aF0.98408102989196777
aF0.5
aF-0.16
aF-1.0800000000000001
aI8218
aI646
aI-190
aF0.92000000000000004
aF9.1999999999999993
aF15722.799999999999
aa(lp13
g3
ag4
aI0
aF1.1422550678253174
aF0.48999999999999999
aF-0.14999999999999999
aF-1.0800000000000001
aI8387
aI2072
aI-137
aF314.63999999999999
aF320.16000000000003
aF121.44
aa(lp14
g3
ag4
aI0
aF1.2421469688415527
aF0.5
aF-0.14000000000000001
aF-1.0800000000000001
aI8154
aI2507
aI-385
aF310.04000000000002
aF320.16000000000003
aF121.44
aa(lp15
g3
ag4
aI0
aF1.3409740924835205
aF0.5
aF-0.14000000000000001
aF-1.0900000000000001
aI7321
aI2683
aI-746
aF310.95999999999998
aF313.72000000000003
aF121.44
aa(lp16
g3
ag4
aI0
aF1.4725649356842041
aF0.48999999999999999
aF-0.13
aF-1.1000000000000001
aI7786
aI3337
aI-1225
aF309.12
aF302.68000000000001
aF119.59999999999999
aa(lp17
g3
ag4
aI0
aF1.6418459415435791
aF0.5
aF-0.10000000000000001
aF-1.0800000000000001
aI8130
aI3384
aI-1975
aF295.31999999999999
aF299.92000000000002
aF116.84
aa(lp18
g3
ag4
aI0
aF1.741847038269043
aF0.56000000000000005
aF-0.040000000000000001
aF-1.05
aI7062
aI4455
aI-2622
aF287.04000000000002
aF297.16000000000003
aF120.52
aa(lp19
g3
ag4
aI0
aF1.8416049480438232
aF0.64000000000000001
aF0.059999999999999998
aF-1.04
aI4853
aI5420
aI-4118
aF272.31999999999999
aF282.44
aF114.08
aa(lp20
g3
ag4
aI0
aF1.9564399719238281
aF0.68999999999999995
aF0.10000000000000001
aF-1.0800000000000001
aI4382
aI4566
aI-2363
aF259.44
aF253
aF104.88
aa(lp21
g3
ag4
aI0
aF2.0901989936828613
aF0.78000000000000003
aF0.070000000000000007
aF-1.1599999999999999
aI10212
aI3896
aI1696
aF256.68000000000001
aF236.44
aF96.599999999999994
aa(lp22
g3
ag4
aI0
aF2.2422559261322021
aF0.91000000000000003
aF-0.01
aF-1.2
aI21103
aI7425
aI6574
aF211.59999999999999
aF287.95999999999998
aF114.08
aa(lp23
g3
ag4
aI0
aF2.3416740894317627
aF0.92000000000000004
aF-0.13
aF-1.1299999999999999
aI28694
aI9500
aI10471
aF161.91999999999999
aF391
aF127.88
aa(lp24
g3
ag4
aI0
aF2.4564900398254395
aF0.83999999999999997
aF-0.42999999999999999
aF-0.90000000000000002
aI29551
aI8075
aI7267
aF106.72
aF583.27999999999997
aF92
aa(lp25
g3
ag4
aI0
aF2.5640051364898682
aF0.78000000000000003
aF-0.60999999999999999
aF-0.65000000000000002
aI24128
aI2122
aI5088
aF111.31999999999999
aF685.39999999999998
aF41.399999999999999
aa(lp26
g3
ag4
aI0
aF2.7091560363769531
aF0.76000000000000001
aF-0.75
aF-0.42999999999999999
aI17297
aI-1
aI3373
aF137.08000000000001
aF764.51999999999998
aF-19.32
aa(lp27
g3
ag4
aI0
aF2.8410689830780029
aF0.77000000000000002
aF-0.90000000000000002
aF-0.28000000000000003
aI9986
aI2179
aI1017
aF155.47999999999999
aF790.27999999999997
aF-42.32
aa(lp28
g3
ag4
aI0
aF2.9427509307861328
aF0.71999999999999997
aF-0.91000000000000003
aF-0.14999999999999999
aI-448
aI3620
aI-2977
aF149.03999999999999
aF771.88
aF-27.600000000000001
aa(lp29
g3
ag4
aI0
aF3.0602090358734131
aF0.71999999999999997
aF-0.77000000000000002
aF-0.20999999999999999
aI-13820
aI3169
aI-11919
aF117.76000000000001
aF701.96000000000004
aF27.600000000000001
aa(lp30
g3
ag4
aI0
aF3.2052710056304932
aF0.97999999999999998
aF-0.51000000000000001
aF-0.52000000000000002
aI-14666
aI1063
aI-15840
aF72.680000000000007
aF498.63999999999999
aF91.079999999999998
aa(lp31
g3
ag4
aI0
aF3.3419530391693115
aF1.1200000000000001
aF-0.16
aF-0.73999999999999999
aI-10272
aI-1868
aI-11006
aF121.44
aF295.31999999999999
aF86.480000000000004
aa(lp32
g3
ag4
aI0
aF3.4463720321655273
aF1.1499999999999999
aF0.23999999999999999
aF-0.88
aI-9040
aI-643
aI-10484
aF158.24000000000001
aF188.59999999999999
aF40.479999999999997
aa(lp33
g3
ag4
aI0
aF3.5689401626586914
aF1.2
aF0.46000000000000002
aF-0.93999999999999995
aI-623
aI-271
aI-4944
aF208.84
aF101.2
aF-29.440000000000001
aa(lp34
g3
ag4
aI0
aF3.6901381015777588
aF1.1399999999999999
aF0.57999999999999996
aF-0.93000000000000005
aI6398
aI-1212
aI134
aF225.40000000000001
aF80.959999999999994
aF-51.520000000000003
aa(lp35
g3
ag4
aI0
aF3.8410229682922363
aF1.03
aF0.69999999999999996
aF-0.82999999999999996
aI9047
aI1445
aI1085
aF227.24000000000001
aF79.120000000000005
aF-52.439999999999998
aa(lp36
g3
ag4
aI0
aF3.9416830539703369
aF0.94999999999999996
aF0.79000000000000004
aF-0.75
aI8137
aI1163
aI402
aF216.19999999999999
aF81.879999999999995
aF-50.600000000000001
aa(lp37
g3
ag4
aI0
aF4.0578479766845703
aF1.01
aF0.80000000000000004
aF-0.80000000000000004
aI8274
aI1280
aI50
aF218.96000000000001
aF77.280000000000001
aF-57.960000000000001
aa(lp38
g3
ag4
aI0
aF4.1855399608612061
aF1.3100000000000001
aF0.69999999999999996
aF-1.02
aI18716
aI2428
aI9758
aF195.96000000000001
aF98.439999999999998
aF-36.799999999999997
aa(lp39
g3
ag4
aI0
aF4.3413031101226807
aF1.28
aF0.55000000000000004
aF-1.03
aI31650
aI5517
aI18143
aF129.72
aF189.52000000000001
aF34.039999999999999
aa(lp40
g3
ag4
aI0
aF4.4413981437683105
aF1.1399999999999999
aF0.28000000000000003
aF-0.95999999999999996
aI31762
aI4788
aI15819
aF57.960000000000001
aF414.92000000000002
aF85.560000000000002
aa(lp41
g3
ag4
aI0
aF4.5417251586914062
aF1
aF-0.080000000000000002
aF-0.81000000000000005
aI29884
aI3251
aI13014
aF57.039999999999999
aF575.91999999999996
aF67.159999999999997
aa(lp42
g3
ag4
aI0
aF4.672868013381958
aF0.87
aF-0.42999999999999999
aF-0.57999999999999996
aI25577
aI993
aI8666
aF102.12
aF725.88
aF-0.92000000000000004
aa(lp43
g3
ag4
aI0
aF4.8412129878997803
aF0.68000000000000005
aF-0.72999999999999998
aF-0.28999999999999998
aI17546
aI-3119
aI3137
aF136.16
aF781.08000000000004
aF-47.840000000000003
aa(lp44
g3
ag4
aI0
aF4.9422340393066406
aF0.65000000000000002
aF-0.93999999999999995
aF-0.17000000000000001
aI9071
aI383
aI542
aF157.31999999999999
aF806.84000000000003
aF-66.239999999999995
aa(lp45
g3
ag4
aI0
aF5.0423400402069092
aF0.65000000000000002
aF-1.0900000000000001
aF-0.14000000000000001
aI8164
aI2079
aI-419
aF159.16
aF808.67999999999995
aF-67.159999999999997
aa(lp46
g3
ag4
aI0
aF5.1628439426422119
aF0.66000000000000003
aF-1.1399999999999999
aF-0.12
aI9298
aI3145
aI-72
aF157.31999999999999
aF806.84000000000003
aF-68.079999999999998
aa(lp47
g3
ag4
aI0
aF5.2765419483184814
aF0.64000000000000001
aF-1.1499999999999999
aF-0.11
aI8393
aI2232
aI20
aF158.24000000000001
aF805.91999999999996
aF-69.920000000000002
aa(lp48
g3
ag4
aI0
aF5.4421920776367188
aF0.62
aF-1.1599999999999999
aF-0.11
aI7894
aI1942
aI-571
aF153.63999999999999
aF803.15999999999997
aF-69.920000000000002
aa(lp49
g3
ag4
aI0
aF5.542165994644165
aF0.60999999999999999
aF-1.1799999999999999
aF-0.11
aI8246
aI2031
aI207
aF157.31999999999999
aF803.15999999999997
aF-65.319999999999993
aa(lp50
g3
ag4
aI0
aF5.6416759490966797
aF0.62
aF-1.1699999999999999
aF-0.11
aI8904
aI1704
aI-41
aF156.40000000000001
aF805
aF-69.920000000000002
aa(lp51
g3
ag4
aI0
aF5.767725944519043
aF0.62
aF-1.1699999999999999
aF-0.11
aI8589
aI1772
aI-55
aF161
aF803.15999999999997
aF-68.079999999999998
aa(lp52
g3
ag4
aI0
aF5.8903341293334961
aF0.62
aF-1.1699999999999999
aF-0.11
aI8441
aI1755
aI-126
aF160.08000000000001
aF807.75999999999999
aF-69
aa(lp53
g3
ag4
aI0
aF6.0422060489654541
aF0.60999999999999999
aF-1.1799999999999999
aF-0.11
aI8618
aI1931
aI-210
aF159.16
aF804.08000000000004
aF-68.079999999999998
aa(lp54
g3
ag4
aI0
aF6.1421639919281006
aF0.60999999999999999
aF-1.1699999999999999
aF-0.11
aI8553
aI1969
aI41
aF159.16
aF807.75999999999999
aF-70.840000000000003
aa(lp55
g3
ag4
aI0
aF6.255363941192627
aF0.62
aF-1.1799999999999999
aF-0.11
aI8873
aI2042
aI102
aF165.59999999999999
aF805.91999999999996
aF-69
aa(lp56
g3
ag4
aI0
aF6.4015951156616211
aF0.62
aF-1.1899999999999999
aF-0.10000000000000001
aI9673
aI1926
aI416
aF165.59999999999999
aF813.27999999999997
aF-74.519999999999996
aa(lp57
g3
ag4
aI0
aF6.5422220230102539
aF0.62
aF-1.1799999999999999
aF-0.12
aI13509
aI539
aI2359
aF173.88
aF817.88
aF-88.319999999999993
aa(lp58
g3
ag4
aI0
aF6.6406550407409668
aF0.55000000000000004
aF-1.1699999999999999
aF0.02
aI14992
aI38
aI3059
aF206.08000000000001
aF841.79999999999995
aF-126.04000000000001
aa(lp59
g3
ag4
aI0
aF6.7542381286621094
aF0.46000000000000002
aF-1.1599999999999999
aF0.14999999999999999
aI8876
aI1611
aI345
aF216.19999999999999
aF854.67999999999995
aF-145.36000000000001
aa(lp60
g3
ag4
aI0
aF6.8716690540313721
aF0.52000000000000002
aF-1.1499999999999999
aF0.070000000000000007
aI5680
aI2644
aI-1540
aF208.84
aF845.48000000000002
aF-131.56
aa(lp61
g3
ag4
aI0
aF7.041456937789917
aF0.46999999999999997
aF-1.1599999999999999
aF0.17999999999999999
aI4583
aI1300
aI-1691
aF207
aF837.20000000000005
aF-115.92
aa(lp62
g3
ag4
aI0
aF7.1412639617919922
aF0.41999999999999998
aF-0.93999999999999995
aF0.13
aI-15270
aI3815
aI-13085
aF166.52000000000001
aF801.32000000000005
aF-51.520000000000003
aa(lp63
g3
ag4
aI0
aF7.2541890144348145
aF0.65000000000000002
aF-0.58999999999999997
aF-0.19
aI-26532
aI2679
aI-22596
aF67.159999999999997
aF572.24000000000001
aF73.599999999999994
aa(lp64
g3
ag4
aI0
aF7.3752560615539551
aF0.89000000000000001
aF0.12
aF-0.48999999999999999
aI-25393
aI140
aI-19627
aF80.959999999999994
aF320.16000000000003
aF77.280000000000001
aa(lp65
g3
ag4
aI0
aF7.5418760776519775
aF1.1899999999999999
aF0.66000000000000003
aF-0.72999999999999998
aI-8867
aI-849
aI-13945
aF165.59999999999999
aF109.48
aF-36.799999999999997
aa(lp66
g3
ag4
aI0
aF7.6420469284057617
aF1.26
aF0.70999999999999996
aF-0.83999999999999997
aI-1737
aI-59
aI-7448
aF217.12
aF59.799999999999997
aF-90.159999999999997
aa(lp67
g3
ag4
aI0
aF7.7408051490783691
aF1.25
aF0.76000000000000001
aF-0.92000000000000004
aI8694
aI1172
aI1561
aF242.88
aF47.840000000000003
aF-119.59999999999999
aa(lp68
g3
ag4
aI0
aF7.8489501476287842
aF1.3300000000000001
aF0.83999999999999997
aF-0.97999999999999998
aI21714
aI298
aI9928
aF211.59999999999999
aF64.400000000000006
aF-88.319999999999993
aa(lp69
g3
ag4
aI0
aF7.9701049327850342
aF1.3200000000000001
aF0.83999999999999997
aF-1.0600000000000001
aI32751
aI1502
aI19015
aF144.44
aF152.72
aF3.6800000000000002
aa(lp70
g3
ag4
aI0
aF8.0930781364440918
aF1.1699999999999999
aF0.46000000000000002
aF-0.88
aI32752
aI3443
aI21476
aF58.880000000000003
aF432.39999999999998
aF87.400000000000006
aa(lp71
g3
ag4
aI0
aF8.2411379814147949
aF0.96999999999999997
aF-0.050000000000000003
aF-0.63
aI32579
aI4130
aI15048
aF74.519999999999996
aF644.91999999999996
aF41.399999999999999
aa(lp72
g3
ag4
aI0
aF8.3415200710296631
aF0.81999999999999995
aF-0.40000000000000002
aF-0.40999999999999998
aI26415
aI1859
aI8106
aF114.08
aF765.44000000000005
aF-38.640000000000001
aa(lp73
g3
ag4
aI0
aF8.4867949485778809
aF0.68000000000000005
aF-0.66000000000000003
aF-0.14000000000000001
aI19803
aI-1097
aI4027
aF164.68000000000001
aF831.67999999999995
aF-123.28
aa(lp74
g3
ag4
aI0
aF8.6420331001281738
aF0.56000000000000005
aF-0.90000000000000002
aF0.089999999999999997
aI11740
aI1615
aI1168
aF183.08000000000001
aF851.91999999999996
aF-159.16
aa(lp75
g3
ag4
aI0
aF8.7420740127563477
aF0.53000000000000003
aF-1.03
aF0.16
aI8985
aI2732
aI39
aF192.28
aF846.39999999999998
aF-172.03999999999999
aa(lp76
g3
ag4
aI0
aF8.8454530239105225
aF0.53000000000000003
aF-1.0800000000000001
aF0.17000000000000001
aI7426
aI2355
aI-182
aF187.68000000000001
aF853.75999999999999
aF-162.84
aa(lp77
g3
ag4
aI0
aF8.9640510082244873
aF0.52000000000000002
aF-1.1200000000000001
aF0.19
aI8827
aI1961
aI-52
aF188.59999999999999
aF854.67999999999995
aF-163.75999999999999
aa(lp78
g3
ag4
aI0
aF9.077800989151001
aF0.5
aF-1.1200000000000001
aF0.20000000000000001
aI6995
aI1787
aI-724
aF190.44
aF847.32000000000005
aF-162.84
aa(lp79
g3
ag4
aI0
aF9.2421090602874756
aF0.51000000000000001
aF-1.1299999999999999
aF0.19
aI3916
aI2018
aI-2686
aF178.47999999999999
aF846.39999999999998
aF-145.36000000000001
aa(lp80
g3
ag4
aI0
aF9.3416130542755127
aF0.56000000000000005
aF-1.1299999999999999
aF0.14000000000000001
aI2019
aI2319
aI-3935
aF160.08000000000001
aF827.08000000000004
aF-112.23999999999999
aa(lp81
g3
ag4
aI0
aF9.4453120231628418
aF0.60999999999999999
aF-1.05
aF0.059999999999999998
aI-3418
aI4293
aI-7557
aF119.59999999999999
aF792.12
aF-69
aa(lp82
g3
ag4
aI0
aF9.5644309520721436
aF0.71999999999999997
aF-0.91000000000000003
aF-0.089999999999999997
aI-10095
aI1969
aI-12394
aF57.039999999999999
aF678.96000000000004
aF9.1999999999999993
aa(lp83
g3
ag4
aI0
aF9.7090511322021484
aF0.83999999999999997
aF-0.56999999999999995
aF-0.34000000000000002
aI-13548
aI646
aI-16307
aF33.119999999999997
aF540.03999999999996
aF62.560000000000002
aa(lp84
g3
ag4
aI0
aF9.8419339656829834
aF1.1200000000000001
aF-0.17999999999999999
aF-0.64000000000000001
aI-11665
aI-4717
aI-15220
aF33.119999999999997
aF372.60000000000002
aF67.159999999999997
aa(lp85
g3
ag4
aI0
aF9.9413521289825439
aF1.26
aF0.10000000000000001
aF-0.79000000000000004
aI-4740
aI2018
aI-11231
aF100.28
aF208.84
aF32.200000000000003
aa(lp86
g3
ag4
aI0
aF10.079174041748047
aF1.23
aF0.34999999999999998
aF-0.82999999999999996
aI-72
aI-1141
aI-7176
aF144.44
aF140.75999999999999
aF-4.5999999999999996
aa(lp87
g3
ag4
aI0
aF10.241614103317261
aF1.1699999999999999
aF0.51000000000000001
aF-0.82999999999999996
aI3819
aI-226
aI-3456
aF183.08000000000001
aF99.359999999999999
aF-39.560000000000002
aa(lp88
g3
ag4
aI0
aF10.341952085494995
aF1.1299999999999999
aF0.58999999999999997
aF-0.81000000000000005
aI6781
aI779
aI-839
aF195.96000000000001
aF87.400000000000006
aF-48.759999999999998
aa(lp89
g3
ag4
aI0
aF10.452891111373901
aF1.1299999999999999
aF0.66000000000000003
aF-0.81000000000000005
aI9560
aI1048
aI1380
aF195.96000000000001
aF87.400000000000006
aF-53.359999999999999
aa(lp90
g3
ag4
aI0
aF10.575483083724976
aF1.1599999999999999
aF0.65000000000000002
aF-0.85999999999999999
aI14371
aI1240
aI5059
aF178.47999999999999
aF108.56
aF-28.52
aa(lp91
g3
ag4
aI0
aF10.741106986999512
aF1.27
aF0.56999999999999995
aF-0.95999999999999996
aI23124
aI2288
aI11442
aF139.84
aF159.16
aF11.039999999999999
aa(lp92
g3
ag4
aI0
aF10.841580152511597
aF1.3200000000000001
aF0.39000000000000001
aF-1.03
aI32616
aI6163
aI18007
aF81.879999999999995
aF285.19999999999999
aF64.400000000000006
aa(lp93
g3
ag4
aI0
aF10.942203044891357
aF1.1100000000000001
aF-0.01
aF-0.73999999999999999
aI32752
aI5181
aI20730
aF38.640000000000001
aF575
aF55.200000000000003
aa(lp94
g3
ag4
aI0
aF11.041579008102417
aF0.81999999999999995
aF-0.33000000000000002
aF-0.44
aI27251
aI319
aI9285
aF81.879999999999995
aF732.32000000000005
aF-23
aa(lp95
g3
ag4
aI0
aF11.189330101013184
aF0.76000000000000001
aF-0.64000000000000001
aF-0.26000000000000001
aI15847
aI1882
aI2181
aF117.76000000000001
aF794.88
aF-84.640000000000001
aa(lp96
g3
ag4
aI0
aF11.342157125473022
aF0.69999999999999996
aF-0.93000000000000005
aF-0.070000000000000007
aI12219
aI-327
aI2017
aF131.56
aF810.51999999999998
aF-105.8
aa(lp97
g3
ag4
aI0
aF11.441096067428589
aF0.66000000000000003
aF-1.03
aF0.01
aI9165
aI3336
aI202
aF138
aF826.15999999999997
aF-115
aa(lp98
g3
ag4
aI0
aF11.542178153991699
aF0.66000000000000003
aF-1.0900000000000001
aF0.02
aI7401
aI2779
aI-628
aF132.47999999999999
aF816.96000000000004
aF-115.92
aa(lp99
g3
ag4
aI0
aF11.679372072219849
aF0.65000000000000002
aF-1.1299999999999999
aF0.02
aI8181
aI2398
aI-482
aF131.56
aF819.72000000000003
aF-108.56
aa(lp100
g3
ag4
aI0
aF11.842065095901489
aF0.64000000000000001
aF-1.1399999999999999
aF0.01
aI8368
aI2547
aI24
aF128.80000000000001
aF817.88
aF-110.40000000000001
aa(lp101
g3
ag4
aI0
aF11.942131996154785
aF0.62
aF-1.1599999999999999
aF0.02
aI8288
aI2331
aI323
aF127.88
aF814.20000000000005
aF-106.72
aa(lp102
g3
ag4
aI0
aF12.041881084442139
aF0.60999999999999999
aF-1.1499999999999999
aF0.01
aI6269
aI2239
aI-862
aF127.88
aF815.12
aF-103.04000000000001
aa(lp103
g3
ag4
aI0
aF12.166676044464111
aF0.64000000000000001
aF-1.1599999999999999
aF-0.01
aI5837
aI1843
aI-1371
aF121.44
aF805
aF-92.920000000000002
aa(lp104
g3
ag4
aI0
aF12.278846979141235
aF0.56999999999999995
aF-1.1100000000000001
aF0.01
aI312
aI2411
aI-5393
aF103.95999999999999
aF782
aF-64.400000000000006
aa(lp105
g3
ag4
aI0
aF12.441020965576172
aF0.63
aF-0.93999999999999995
aF-0.080000000000000002
aI-8768
aI1054
aI-13509
aF62.560000000000002
aF712.08000000000004
aF-13.800000000000001
aa(lp106
g3
ag4
aI0
aF12.541949987411499
aF0.85999999999999999
aF-0.62
aF-0.32000000000000001
aI-14572
aI2221
aI-18693
aF11.039999999999999
aF513.36000000000001
aF54.280000000000001
aa(lp107
g3
ag4
aI0
aF12.645218133926392
aF1.1000000000000001
aF-0.10000000000000001
aF-0.59999999999999998
aI-14676
aI-886
aI-17066
aF34.039999999999999
aF325.68000000000001
aF54.280000000000001
aa(lp108
g3
ag4
aI0
aF12.774261951446533
aF1.21
aF0.28000000000000003
aF-0.78000000000000003
aI-6482
aI1017
aI-10943
aF98.439999999999998
aF189.52000000000001
aF11.960000000000001
aa(lp109
g3
ag4
aI0
aF12.941935062408447
aF1.26
aF0.47999999999999998
aF-0.80000000000000004
aI533
aI2958
aI-7363
aF159.16
aF106.72
aF-44.159999999999997
aa(lp110
g3
ag4
aI0
aF13.041928052902222
aF1.23
aF0.63
aF-0.78000000000000003
aI4210
aI1522
aI-3587
aF191.36000000000001
aF79.120000000000005
aF-69.920000000000002
aa(lp111
g3
ag4
aI0
aF13.141616106033325
aF1.1799999999999999
aF0.68999999999999995
aF-0.78000000000000003
aI8029
aI576
aI413
aF198.72
aF69.920000000000002
aF-79.120000000000005
aa(lp112
g3
ag4
aI0
aF13.260203123092651
aF1.22
aF0.71999999999999997
aF-0.81000000000000005
aI13102
aI697
aI4968
aF185.84
aF80.959999999999994
aF-67.159999999999997
aa(lp113
g3
ag4
aI0
aF13.374052047729492
aF1.28
aF0.70999999999999996
aF-0.90000000000000002
aI21713
aI341
aI12793
aF142.59999999999999
aF128.80000000000001
aF-23.920000000000002
aa(lp114
g3
ag4
aI0
aF13.541948080062866
aF1.3
aF0.53000000000000003
aF-0.93999999999999995
aI30068
aI4963
aI18387
aF75.439999999999998
aF241.96000000000001
aF41.399999999999999
aa(lp115
g3
ag4
aI0
aF13.641723155975342
aF1.1100000000000001
aF0.14000000000000001
aF-0.79000000000000004
aI32566
aI7189
aI20056
aF24.84
aF494.95999999999998
aF61.640000000000001
aa(lp116
g3
ag4
aI0
aF13.756629943847656
aF0.93999999999999995
aF-0.23999999999999999
aF-0.55000000000000004
aI28003
aI66
aI13724
aF39.560000000000002
aF662.39999999999998
aF9.1999999999999993
aa(lp117
g3
ag4
aI0
aF13.871757984161377
aF0.79000000000000004
aF-0.57999999999999996
aF-0.33000000000000002
aI20183
aI272
aI6766
aF90.159999999999997
aF752.55999999999995
aF-38.640000000000001
aa(lp118
g3
ag4
aI0
aF14.041893005371094
aF0.68999999999999995
aF-0.87
aF-0.12
aI11160
aI31
aI496
aF121.44
aF788.44000000000005
aF-68.079999999999998
aa(lp119
g3
ag4
aI0
aF14.141832113265991
aF0.65000000000000002
aF-1.03
aF-0.089999999999999997
aI6982
aI1132
aI-526
aF118.68000000000001
aF790.27999999999997
aF-66.239999999999995
aa(lp120
g3
ag4
aI0
aF14.241928100585938
aF0.65000000000000002
aF-1.0900000000000001
aF-0.12
aI8002
aI2269
aI-348
aF116.84
aF791.20000000000005
aF-67.159999999999997
aa(lp121
g3
ag4
aI0
aF14.365409135818481
aF0.64000000000000001
aF-1.1299999999999999
aF-0.12
aI8153
aI2540
aI303
aF116.84
aF790.27999999999997
aF-65.319999999999993
aa(lp122
g3
ag4
aI0
aF14.541171073913574
aF0.63
aF-1.1499999999999999
aF-0.11
aI7750
aI2884
aI-707
aF112.23999999999999
aF792.12
aF-67.159999999999997
aa(lp123
g3
ag4
aI0
aF14.641042947769165
aF0.63
aF-1.1599999999999999
aF-0.13
aI7795
aI2001
aI-250
aF110.40000000000001
aF784.75999999999999
aF-60.719999999999999
aa(lp124
g3
ag4
aI0
aF14.740595102310181
aF0.65000000000000002
aF-1.1699999999999999
aF-0.13
aI8289
aI1795
aI-10
aF112.23999999999999
aF781.08000000000004
aF-59.799999999999997
aa(lp125
g3
ag4
aI0
aF14.847728967666626
aF0.65000000000000002
aF-1.1599999999999999
aF-0.14000000000000001
aI7729
aI1821
aI-450
aF110.40000000000001
aF781.08000000000004
aF-57.039999999999999
aa(lp126
g3
ag4
aI0
aF14.967766046524048
aF0.63
aF-1.1599999999999999
aF-0.12
aI5159
aI1478
aI-2072
aF113.16
aF773.72000000000003
aF-49.68
aa(lp127
g3
ag4
aI0
aF15.141916990280151
aF0.58999999999999997
aF-1.0900000000000001
aF-0.11
aI-1343
aI2155
aI-7289
aF90.159999999999997
aF747.96000000000004
aF-25.760000000000002
aa(lp128
g3
ag4
aI0
aF15.241961002349854
aF0.66000000000000003
aF-0.87
aF-0.22
aI-8707
aI5742
aI-16943
aF23.920000000000002
aF623.75999999999999
aF23.920000000000002
aa(lp129
g3
ag4
aI0
aF15.368009090423584
aF1.02
aF-0.53000000000000003
aF-0.45000000000000001
aI-9642
aI5684
aI-20744
aF-23.920000000000002
aF456.31999999999999
aF34.960000000000001
aa(lp130
g3
ag4
aI0
aF15.541852951049805
aF1.24
aF-0.16
aF-0.64000000000000001
aI-4866
aI3794
aI-16671
aF3.6800000000000002
aF296.24000000000001
aF22.079999999999998
aa(lp131
g3
ag4
aI0
aF15.64106297492981
aF1.3100000000000001
aF0.050000000000000003
aF-0.65000000000000002
aI5977
aI4266
aI-10276
aF46.920000000000002
aF188.59999999999999
aF-20.239999999999998
aa(lp132
g3
ag4
aI0
aF15.741060018539429
aF1.3300000000000001
aF0.26000000000000001
aF-0.56999999999999995
aI10364
aI9796
aI-7607
aF56.119999999999997
aF162.84
aF-42.32
aa(lp133
g3
ag4
aI0
aF15.840924024581909
aF1.29
aF0.52000000000000002
aF-0.47999999999999998
aI9176
aI4735
aI-7371
aF63.479999999999997
aF138.91999999999999
aF-56.119999999999997
aa(lp134
g3
ag4
aI0
aF15.951641082763672
aF1.3
aF0.71999999999999997
aF-0.35999999999999999
aI7561
aI4943
aI-7467
aF96.599999999999994
aF112.23999999999999
aF-69
aa(lp135
g3
ag4
aI0
aF16.065329074859619
aF1.25
aF0.84999999999999998
aF-0.32000000000000001
aI7227
aI3173
aI-5403
aF117.76000000000001
aF96.599999999999994
aF-76.359999999999999
aa(lp136
g3
ag4
aI0
aF16.202926158905029
aF1.22
aF0.92000000000000004
aF-0.34000000000000002
aI8529
aI4626
aI-3010
aF134.31999999999999
aF88.319999999999993
aF-80.959999999999994
aa(lp137
g3
ag4
aI0
aF16.341150999069214
aF1.22
aF0.98999999999999999
aF-0.28999999999999998
aI8771
aI4226
aI-1833
aF142.59999999999999
aF80.040000000000006
aF-84.640000000000001
aa(lp138
g3
ag4
aI0
aF16.44084906578064
aF1.1499999999999999
aF1.02
aF-0.23999999999999999
aI10745
aI2230
aI1477
aF139.84
aF79.120000000000005
aF-84.640000000000001
aa(lp139
g3
ag4
aI0
aF16.556679010391235
aF1.26
aF1.04
aF-0.22
aI8884
aI5093
aI3494
aF120.52
aF90.159999999999997
aF-82.799999999999997
aa(lp140
g3
ag4
aI0
aF16.694004058837891
aF1.4399999999999999
aF1.05
aF-0.28999999999999998
aI8616
aI-485
aI9156
aF95.680000000000007
aF100.28
aF-80.040000000000006
aa(lp141
g3
ag4
aI0
aF16.841407060623169
aF1.4399999999999999
aF0.93999999999999995
aF-0.35999999999999999
aI9376
aI-1438
aI11178
aF44.159999999999997
aF141.68000000000001
aF-63.479999999999997
aa(lp142
g3
ag4
aI0
aF16.941877126693726
aF0.93000000000000005
aF0.70999999999999996
aF-0.29999999999999999
aI11923
aI1275
aI110
aF21.16
aF174.80000000000001
aF-44.159999999999997
aa(lp143
g3
ag4
aI0
aF17.060138940811157
aF1.21
aF0.59999999999999998
aF-0.33000000000000002
aI14124
aI18015
aI-3037
aF-18.399999999999999
aF182.16
aF-82.799999999999997
aa(lp144
g3
ag4
aI0
aF17.182703018188477
aF1.3
aF0.52000000000000002
aF-0.29999999999999999
aI20884
aI13851
aI-6821
aF-35.880000000000003
aF181.24000000000001
aF-110.40000000000001
aa(lp145
g3
ag4
aI0
aF17.341738939285278
aF1.3500000000000001
aF0.65000000000000002
aF-0.17999999999999999
aI26291
aI8185
aI-4913
aF-27.600000000000001
aF183.08000000000001
aF-80.959999999999994
aa(lp146
g3
ag4
aI0
aF17.441734075546265
aF1.3700000000000001
aF0.72999999999999998
aF-0.14000000000000001
aI30321
aI17430
aI544
aF-40.479999999999997
aF231.84
aF-57.960000000000001
aa(lp147
g3
ag4
aI0
aF17.546494960784912
aF1.4299999999999999
aF0.73999999999999999
aF-0.19
aI31298
aI15569
aI6616
aF-100.28
aF364.31999999999999
aF-83.719999999999999
aa(lp148
g3
ag4
aI0
aF17.667643070220947
aF1.52
aF0.70999999999999996
aF-0.25
aI28363
aI11186
aI9189
aF-121.44
aF464.60000000000002
aF-131.56
aa(lp149
g3
ag4
aI0
aF17.841747045516968
aF1.5600000000000001
aF0.69999999999999996
aF-0.25
aI24750
aI8712
aI9202
aF-121.44
aF550.15999999999997
aF-191.36000000000001
aa(lp150
g3
ag4
aI0
aF17.941400051116943
aF1.4299999999999999
aF0.88
aF-0.14000000000000001
aI10475
aI-640
aI4460
aF-105.8
aF611.79999999999995
aF-227.24000000000001
aa(lp151
g3
ag4
aI0
aF18.053908109664917
aF1.3100000000000001
aF0.87
aF-0.080000000000000002
aI-8118
aI-6601
aI-1774
aF-94.760000000000005
aF613.63999999999999
aF-180.31999999999999
aa(lp152
g3
ag4
aI0
aF18.167744159698486
aF1.4099999999999999
aF0.85999999999999999
aF-0.16
aI-29723
aI-6074
aI-8124
aF-95.680000000000007
aF540.96000000000004
aF-98.439999999999998
aa(lp153
g3
ag4
aI0
aF18.341012954711914
aF1.52
aF1.1100000000000001
aF-0.14999999999999999
aI-32640
aI-13881
aI-4454
aF-69.920000000000002
aF287.95999999999998
aF-60.719999999999999
aa(lp154
g3
ag4
aI0
aF18.452621936798096
aF1.4299999999999999
aF1.4099999999999999
aF-0.14999999999999999
aI-32640
aI-22578
aI12976
aF-43.240000000000002
aF173.88
aF-127.88
aa(lp155
g3
ag4
aI0
aF18.568973064422607
aF1.3
aF1.26
aF-0.28999999999999998
aI-17551
aI3021
aI11248
aF-92.920000000000002
aF227.24000000000001
aF-224.47999999999999
aa(lp156
g3
ag4
aI0
aF18.741058111190796
aF1.25
aF0.85999999999999999
aF-0.40000000000000002
aI-10396
aI8801
aI-286
aF-99.359999999999999
aF281.51999999999998
aF-326.60000000000002
aa(lp157
g3
ag4
aI0
aF18.841364145278931
aF1.3300000000000001
aF0.40000000000000002
aF-0.41999999999999998
aI-3961
aI8349
aI-7804
aF-71.760000000000005
aF309.12
aF-391.92000000000002
aa(lp158
g3
ag4
aI0
aF18.941345930099487
aF1.53
aF0.10000000000000001
aF-0.41999999999999998
aI4183
aI1943
aI-7129
aF-33.119999999999997
aF297.16000000000003
aF-449.88
aa(lp159
g3
ag4
aI0
aF19.065375089645386
aF1.6899999999999999
aF0.029999999999999999
aF-0.39000000000000001
aI15694
aI-803
aI-1142
aF-34.960000000000001
aF267.72000000000003
aF-429.63999999999999
aa(lp160
g3
ag4
aI0
aF19.241666078567505
aF1.76
aF0.14999999999999999
aF-0.40999999999999998
aI25849
aI3196
aI4273
aF-42.32
aF233.68000000000001
aF-390.07999999999998
aa(lp161
g3
ag4
aI0
aF19.341231107711792
aF1.76
aF0.42999999999999999
aF-0.47999999999999998
aI32728
aI1632
aI9514
aF-71.760000000000005
aF214.36000000000001
aF-293.48000000000002
aa(lp162
g3
ag4
aI0
aF19.448917150497437
aF1.78
aF0.59999999999999998
aF-0.47999999999999998
aI32752
aI3638
aI14136
aF-103.95999999999999
aF272.31999999999999
aF-197.80000000000001
aa(lp163
g3
ag4
aI0
aF19.562940120697021
aF1.73
aF0.63
aF-0.39000000000000001
aI32752
aI-2380
aI14105
aF-123.28
aF402.04000000000002
aF-137.08000000000001
aa(lp164
g3
ag4
aI0
aF19.680187940597534
aF1.6799999999999999
aF0.63
aF-0.29999999999999999
aI32752
aI-3623
aI9805
aF-96.599999999999994
aF585.12
aF-137.08000000000001
aa(lp165
g3
ag4
aI0
aF19.846544981002808
aF1.5900000000000001
aF0.62
aF-0.20000000000000001
aI32661
aI-8054
aI7846
aF-58.880000000000003
aF676.20000000000005
aF-169.28
aa(lp166
g3
ag4
aI0
aF19.941060066223145
aF1.5800000000000001
aF0.55000000000000004
aF0.029999999999999999
aI27909
aI-8803
aI799
aF-32.200000000000003
aF722.20000000000005
aF-195.96000000000001
aa(lp167
g3
ag4
aI0
aF20.057613134384155
aF1.5700000000000001
aF0.44
aF0.28000000000000003
aI15693
aI-1509
aI-3387
aF-36.799999999999997
aF724.03999999999996
aF-223.56
aa(lp168
g3
ag4
aI0
aF20.179088115692139
aF1.5800000000000001
aF0.33000000000000002
aF0.34000000000000002
aI794
aI6957
aI-6446
aF-56.119999999999997
aF699.20000000000005
aF-231.84
aa(lp169
g3
ag4
aI0
aF20.341544151306152
aF1.6100000000000001
aF0.41999999999999998
aF0.27000000000000002
aI-15592
aI2135
aI-5427
aF-75.439999999999998
aF659.63999999999999
aF-205.16
aa(lp170
g3
ag4
aI0
aF20.486609935760498
aF1.6499999999999999
aF0.56999999999999995
aF0.14000000000000001
aI-26812
aI3580
aI-4229
aF-91.079999999999998
aF580.51999999999998
aF-126.04000000000001
aa(lp171
g3
ag4
aI0
aF20.641777992248535
aF1.6499999999999999
aF0.71999999999999997
aF-0
aI-28455
aI5786
aI-6307
aF-107.64
aF471.04000000000002
aF-100.28
aa(lp172
g3
ag4
aI0
aF20.740591049194336
aF1.6699999999999999
aF0.84999999999999998
aF-0.13
aI-26862
aI6090
aI-8552
aF-119.59999999999999
aF359.72000000000003
aF-148.12
aa(lp173
g3
ag4
aI0
aF20.84086012840271
aF1.6799999999999999
aF0.87
aF-0.23000000000000001
aI-23454
aI4552
aI-10129
aF-102.12
aF267.72000000000003
aF-262.19999999999999
aa(lp174
g3
ag4
aI0
aF20.947678089141846
aF1.6599999999999999
aF0.72999999999999998
aF-0.28000000000000003
aI-16992
aI4870
aI-8870
aF-72.680000000000007
aF257.60000000000002
aF-354.19999999999999
aa(lp175
g3
ag4
aI0
aF21.065371036529541
aF1.6499999999999999
aF0.48999999999999999
aF-0.28000000000000003
aI-9498
aI3191
aI-8274
aF-30.359999999999999
aF287.95999999999998
aF-443.44
aa(lp176
g3
ag4
aI0
aF21.186563014984131
aF1.6399999999999999
aF0.23999999999999999
aF-0.27000000000000002
aI-2260
aI285
aI-6289
aF-10.119999999999999
aF314.63999999999999
aF-474.72000000000003
aa(lp177
g3
ag4
aI0
aF21.34172797203064
aF1.6599999999999999
aF0.089999999999999997
aF-0.25
aI8409
aI-284
aI-2632
aF-9.1999999999999993
aF318.31999999999999
aF-475.63999999999999
aa(lp178
g3
ag4
aI0
aF21.440616130828857
aF1.6799999999999999
aF0.11
aF-0.22
aI18433
aI1600
aI2051
aF-15.640000000000001
aF297.16000000000003
aF-462.75999999999999
aa(lp179
g3
ag4
aI0
aF21.556609153747559
aF1.6499999999999999
aF0.23999999999999999
aF-0.23000000000000001
aI26030
aI4983
aI5710
aF-23.920000000000002
aF247.47999999999999
aF-421.36000000000001
aa(lp180
g3
ag4
aI0
aF21.683984994888306
aF1.6499999999999999
aF0.39000000000000001
aF-0.26000000000000001
aI31553
aI4881
aI8622
aF-45.079999999999998
aF218.96000000000001
aF-366.16000000000003
aa(lp181
g3
ag4
aI0
aF21.841542959213257
aF1.6599999999999999
aF0.57999999999999996
aF-0.27000000000000002
aI32752
aI405
aI9471
aF-70.840000000000003
aF218.03999999999999
aF-282.44
aa(lp182
g3
ag4
aI0
aF21.940644979476929
aF1.6599999999999999
aF0.69999999999999996
aF-0.22
aI32752
aI-53
aI8546
aF-102.12
aF294.39999999999998
aF-158.24000000000001
aa(lp183
g3
ag4
aI0
aF22.060435056686401
aF1.6200000000000001
aF0.72999999999999998
aF-0.20999999999999999
aI32752
aI-213
aI6598
aF2508.8400000000001
aF15722.799999999999
aF0.92000000000000004
aa(lp184
g3
ag4
aI0
aF22.17805004119873
aF1.52
aF0.71999999999999997
aF-0.14000000000000001
aI32645
aI-3494
aI3477
aF-89.239999999999995
aF498.63999999999999
aF-73.599999999999994
aa(lp185
g3
ag4
aI0
aF22.34155011177063
aF1.51
aF0.59999999999999998
aF0.050000000000000003
aI25563
aI-646
aI-406
aF-65.319999999999993
aF590.63999999999999
aF-83.719999999999999
aa(lp186
g3
ag4
aI0
aF22.440600156784058
aF1.53
aF0.48999999999999999
aF0.20999999999999999
aI11570
aI848
aI-4018
aF-72.680000000000007
aF598.91999999999996
aF-90.159999999999997
aa(lp187
g3
ag4
aI0
aF22.540768146514893
aF1.5900000000000001
aF0.40999999999999998
aF0.20000000000000001
aI-2764
aI2767
aI-4643
aF-82.799999999999997
aF567.63999999999999
aF-86.480000000000004
aa(lp188
g3
ag4
aI0
aF22.659094095230103
aF1.6200000000000001
aF0.46999999999999997
aF0.11
aI-14416
aI795
aI-1458
aF-90.159999999999997
aF502.31999999999999
aF-68.079999999999998
aa(lp189
g3
ag4
aI0
aF22.797815084457397
aF1.5900000000000001
aF0.57999999999999996
aF-0.01
aI-19263
aI3161
aI-1732
aF-92
aF394.68000000000001
aF-70.840000000000003
aa(lp190
g3
ag4
aI0
aF22.941689014434814
aF1.5600000000000001
aF0.62
aF-0.13
aI-19814
aI1305
aI-2050
aF-94.760000000000005
aF314.63999999999999
aF-108.56
aa(lp191
g3
ag4
aI0
aF23.059154987335205
aF1.54
aF0.59999999999999998
aF-0.17000000000000001
aI-14863
aI5572
aI-4421
aF-93.840000000000003
aF255.75999999999999
aF-168.36000000000001
aa(lp192
g3
ag4
aI0
aF23.184267997741699
aF1.5700000000000001
aF0.54000000000000004
aF-0.19
aI-9988
aI7219
aI-8488
aF-69
aF208.84
aF-281.51999999999998
aa(lp193
g3
ag4
aI0
aF23.340553045272827
aF1.6000000000000001
aF0.46999999999999997
aF-0.13
aI-5801
aI2254
aI-8029
aF-32.200000000000003
aF190.44
aF-354.19999999999999
aa(lp194
g3
ag4
aI0
aF23.441219091415405
aF1.6100000000000001
aF0.32000000000000001
aF-0.080000000000000002
aI-212
aI2047
aI-5360
aF-4.5999999999999996
aF189.52000000000001
aF-396.51999999999998
aa(lp195
g3
ag4
aI0
aF23.559019088745117
aF1.6100000000000001
aF0.19
aF-0.040000000000000001
aI5381
aI331
aI-2104
aF11.960000000000001
aF193.19999999999999
aF-417.68000000000001
aa(lp196
g3
ag4
aI0
aF23.696753025054932
aF1.6000000000000001
aF0.17000000000000001
aF-0.029999999999999999
aI14346
aI2853
aI1439
aF7.3600000000000003
aF186.75999999999999
aF-406.63999999999999
aa(lp197
g3
ag4
aI0
aF23.841043949127197
aF1.5900000000000001
aF0.20000000000000001
aF-0.029999999999999999
aI20916
aI3921
aI4617
aF-0.92000000000000004
aF173.88
aF-376.27999999999997
aa(lp198
g3
ag4
aI0
aF23.940648078918457
aF1.5900000000000001
aF0.31
aF-0.029999999999999999
aI26370
aI3807
aI6840
aF-23.920000000000002
aF164.68000000000001
aF-320.16000000000003
aa(lp199
g3
ag4
aI0
aF24.048228979110718
aF1.5900000000000001
aF0.42999999999999999
aF-0.070000000000000007
aI27753
aI5393
aI9252
aF-55.200000000000003
aF182.16
aF-259.44
aa(lp200
g3
ag4
aI0
aF24.151664972305298
aF1.6000000000000001
aF0.53000000000000003
aF-0.089999999999999997
aI29242
aI252
aI10938
aF-95.680000000000007
aF262.19999999999999
aF-183.08000000000001
aa(lp201
g3
ag4
aI0
aF24.267945051193237
aF1.5700000000000001
aF0.56000000000000005
aF-0.089999999999999997
aI29615
aI57
aI9378
aF-111.31999999999999
aF353.27999999999997
aF-128.80000000000001
aa(lp202
g3
ag4
aI0
aF24.441663026809692
aF1.54
aF0.5
aF-0.070000000000000007
aI29263
aI-2079
aI6301
aF-106.72
aF444.36000000000001
aF-97.519999999999996
aa(lp203
g3
ag4
aI0
aF24.543951034545898
aF1.48
aF0.41999999999999998
aF0.040000000000000001
aI23037
aI-2301
aI3126
aF-88.319999999999993
aF539.12
aF-81.879999999999995
aa(lp204
g3
ag4
aI0
aF24.664118051528931
aF1.45
aF0.37
aF0.16
aI10788
aI-2263
aI-1785
aF-74.519999999999996
aF560.27999999999997
aF-66.239999999999995
aa(lp205
g3
ag4
aI0
aF24.841647148132324
aF1.51
aF0.34000000000000002
aF0.16
aI-1432
aI547
aI-5611
aF-73.599999999999994
aF526.24000000000001
aF-56.119999999999997
aa(lp206
g3
ag4
aI0
aF24.940513134002686
aF1.55
aF0.40000000000000002
aF0.040000000000000001
aI-12877
aI-1240
aI-3646
aF-67.159999999999997
aF452.63999999999999
aF-38.640000000000001
aa(lp207
g3
ag4
aI0
aF25.040920972824097
aF1.51
aF0.55000000000000004
aF-0.12
aI-16952
aI-4055
aI-2012
aF-55.200000000000003
aF322.92000000000002
aF-34.960000000000001
aa.