(lp1
(lp2
S'Lazar'
p3
aS'shoulder'
p4
aI0
aF0
aI0
aI0
aI0
aI0
aI0
aI0
aI0
aI0
aI0
aa(lp5
g3
ag4
aI0
aF0.16890692710876465
aF0.46999999999999997
aF-0.95999999999999996
aF-0.25
aI-746
aI40
aI-1288
aF-174.80000000000001
aF766.36000000000001
aF-170.19999999999999
aa(lp6
g3
ag4
aI0
aF0.24482202529907227
aF0.47999999999999998
aF-0.95999999999999996
aF-0.25
aI-1555
aI3166
aI-580
aF-180.31999999999999
aF757.15999999999997
aF-165.59999999999999
aa(lp7
g3
ag4
aI0
aF0.34597992897033691
aF0.48999999999999999
aF-0.93999999999999995
aF-0.23999999999999999
aI327
aI2091
aI1115
aF-183.08000000000001
aF754.39999999999998
aF-184.91999999999999
aa(lp8
g3
ag4
aI0
aF0.48055696487426758
aF0.5
aF-0.95999999999999996
aF-0.25
aI-747
aI555
aI-308
aF-175.72
aF759.91999999999996
aF-197.80000000000001
aa(lp9
g3
ag4
aI0
aF0.64518499374389648
aF0.52000000000000002
aF-0.95999999999999996
aF-0.20999999999999999
aI-123
aI4081
aI76
aF-178.47999999999999
aF763.60000000000002
aF-207.91999999999999
aa(lp10
g3
ag4
aI0
aF0.74547982215881348
aF0.52000000000000002
aF-0.95999999999999996
aF-0.17000000000000001
aI1421
aI-57
aI453
aF-175.72
aF765.44000000000005
aF-228.16
aa(lp11
g3
ag4
aI0
aF0.84615397453308105
aF0.51000000000000001
aF-0.96999999999999997
aF-0.14999999999999999
aI1986
aI-2204
aI438
aF-178.47999999999999
aF768.20000000000005
aF-226.31999999999999
aa(lp12
g3
ag4
aI0
aF0.97809195518493652
aF0.51000000000000001
aF-0.95999999999999996
aF-0.14999999999999999
aI1222
aI-3486
aI-360
aF-178.47999999999999
aF761.75999999999999
aF-213.44
aa(lp13
g3
ag4
aI0
aF1.1454079151153564
aF0.5
aF-0.94999999999999996
aF-0.14999999999999999
aI1172
aI-2500
aI443
aF-179.40000000000001
aF764.51999999999998
aF-202.40000000000001
aa(lp14
g3
ag4
aI0
aF1.2458329200744629
aF0.47999999999999998
aF-0.94999999999999996
aF-0.17000000000000001
aI554
aI-1366
aI626
aF-177.56
aF763.60000000000002
aF-195.03999999999999
aa(lp15
g3
ag4
aI0
aF1.3463029861450195
aF0.48999999999999999
aF-0.96999999999999997
aF-0.19
aI573
aI-1474
aI256
aF-174.80000000000001
aF764.51999999999998
aF-189.52000000000001
aa(lp16
g3
ag4
aI0
aF1.4542407989501953
aF0.56000000000000005
aF-1.1000000000000001
aF-0.22
aI1177
aI-117
aI131
aF-170.19999999999999
aF773.72000000000003
aF-177.56
aa(lp17
g3
ag4
aI0
aF1.593148946762085
aF0.58999999999999997
aF-1.21
aF-0.20000000000000001
aI1886
aI-1129
aI-1388
aF-170.19999999999999
aF770.03999999999996
aF-174.80000000000001
aa(lp18
g3
ag4
aI0
aF1.7458410263061523
aF0.55000000000000004
aF-1.1599999999999999
aF-0.16
aI1481
aI1657
aI1312
aF-174.80000000000001
aF766.36000000000001
aF-183.08000000000001
aa(lp19
g3
ag4
aI0
aF1.8460788726806641
aF0.46000000000000002
aF-0.97999999999999998
aF-0.17000000000000001
aI-565
aI128
aI5263
aF-153.63999999999999
aF798.55999999999995
aF-206.08000000000001
aa(lp20
g3
ag4
aI0
aF1.9706799983978271
aF0.35999999999999999
aF-0.87
aF-0.16
aI-142
aI-2151
aI7060
aF-105.8
aF844.55999999999995
aF-186.75999999999999
aa(lp21
g3
ag4
aI0
aF2.0916550159454346
aF0.34000000000000002
aF-0.87
aF-0.14999999999999999
aI-1819
aI727
aI1912
aF-92
aF857.44000000000005
aF-181.24000000000001
aa(lp22
g3
ag4
aI0
aF2.2461419105529785
aF0.29999999999999999
aF-0.81999999999999995
aF-0.14000000000000001
aI1523
aI-1333
aI411
aF-66.239999999999995
aF874
aF-171.12
aa(lp23
g3
ag4
aI0
aF2.3571698665618896
aF0.26000000000000001
aF-0.76000000000000001
aF-0.14999999999999999
aI2578
aI-1585
aI-5498
aF-76.359999999999999
aF871.24000000000001
aF-174.80000000000001
aa(lp24
g3
ag4
aI0
aF2.4918768405914307
aF0.28999999999999998
aF-0.85999999999999999
aF-0.14999999999999999
aI4259
aI-1603
aI-5776
aF-124.2
aF831.67999999999995
aF-188.59999999999999
aa(lp25
g3
ag4
aI0
aF2.6460068225860596
aF0.35999999999999999
aF-0.94999999999999996
aF-0.12
aI903
aI-1981
aI-3221
aF-159.16
aF785.67999999999995
aF-191.36000000000001
aa(lp26
g3
ag4
aI0
aF2.746039867401123
aF0.40999999999999998
aF-1.01
aF-0.11
aI-1247
aI2565
aI-949
aF-170.19999999999999
aF773.72000000000003
aF-190.44
aa(lp27
g3
ag4
aI0
aF2.8679389953613281
aF0.46999999999999997
aF-1.0800000000000001
aF-0.13
aI-1990
aI3772
aI-220
aF-169.28
aF773.72000000000003
aF-196.88
aa(lp28
g3
ag4
aI0
aF2.9841208457946777
aF0.46000000000000002
aF-1.0800000000000001
aF-0.10000000000000001
aI-1927
aI2710
aI-929
aF-172.96000000000001
aF777.39999999999998
aF-207
aa(lp29
g3
ag4
aI0
aF3.1451399326324463
aF0.5
aF-1.0600000000000001
aF-0.070000000000000007
aI-2279
aI103
aI-2551
aF-174.80000000000001
aF766.36000000000001
aF-207
aa(lp30
g3
ag4
aI0
aF3.2462348937988281
aF0.59999999999999998
aF-1.1000000000000001
aF-0.11
aI-2882
aI704
aI-2694
aF-181.24000000000001
aF762.67999999999995
aF-178.47999999999999
aa(lp31
g3
ag4
aI0
aF3.3691840171813965
aF0.65000000000000002
aF-1.1699999999999999
aF-0.13
aI1507
aI1486
aI554
aF-184.91999999999999
aF758.08000000000004
aF-176.63999999999999
aa(lp32
g3
ag4
aI0
aF3.4918849468231201
aF0.56000000000000005
aF-1.1399999999999999
aF-0.13
aI830
aI-2798
aI1480
aF-175.72
aF763.60000000000002
aF-185.84
aa(lp33
g3
ag4
aI0
aF3.6452109813690186
aF0.46999999999999997
aF-1.0600000000000001
aF-0.11
aI-198
aI-280
aI2978
aF-162.84
aF783.84000000000003
aF-168.36000000000001
aa(lp34
g3
ag4
aI0
aF3.7463209629058838
aF0.44
aF-1.03
aF-0.16
aI-2340
aI2403
aI4349
aF-130.63999999999999
aF815.12
aF-158.24000000000001
aa(lp35
g3
ag4
aI0
aF3.8553638458251953
aF0.32000000000000001
aF-0.84999999999999998
aF-0.19
aI-1611
aI297
aI5386
aF-88.319999999999993
aF857.44000000000005
aF-152.72
aa(lp36
g3
ag4
aI0
aF3.9766929149627686
aF0.25
aF-0.76000000000000001
aF-0.17000000000000001
aI408
aI-2367
aI484
aF-75.439999999999998
aF862.03999999999996
aF-150.88
aa(lp37
g3
ag4
aI0
aF4.1460168361663818
aF0.20000000000000001
aF-0.83999999999999997
aF-0.22
aI1075
aI-1018
aI-2348
aF-80.959999999999994
aF858.36000000000001
aF-149.03999999999999
aa(lp38
g3
ag4
aI0
aF4.245222806930542
aF0.20000000000000001
aF-0.84999999999999998
aF-0.23999999999999999
aI1231
aI-26
aI-4686
aF-111.31999999999999
aF833.51999999999998
aF-149.03999999999999
aa(lp39
g3
ag4
aI0
aF4.3617730140686035
aF0.26000000000000001
aF-0.90000000000000002
aF-0.20999999999999999
aI1822
aI-3430
aI-3096
aF-154.56
aF792.12
aF-156.40000000000001
aa(lp40
g3
ag4
aI0
aF4.4843649864196777
aF0.29999999999999999
aF-0.92000000000000004
aF-0.17000000000000001
aI2393
aI-2795
aI-240
aF-174.80000000000001
aF760.84000000000003
aF-155.47999999999999
aa(lp41
g3
ag4
aI0
aF4.6460678577423096
aF0.40999999999999998
aF-1
aF-0.14999999999999999
aI1038
aI-630
aI1424
aF-182.16
aF751.63999999999999
aF-160.08000000000001
aa(lp42
g3
ag4
aI0
aF4.7453060150146484
aF0.46000000000000002
aF-1.01
aF-0.16
aI-2098
aI-1264
aI1423
aF-182.16
aF757.15999999999997
aF-154.56
aa(lp43
g3
ag4
aI0
aF4.8605170249938965
aF0.45000000000000001
aF-1.01
aF-0.19
aI-799
aI-68
aI1559
aF-172.03999999999999
aF759.91999999999996
aF-137.08000000000001
aa(lp44
g3
ag4
aI0
aF4.9831869602203369
aF0.46999999999999997
aF-1.05
aF-0.17999999999999999
aI1110
aI-315
aI1334
aF-172.03999999999999
aF759.91999999999996
aF-137.08000000000001
aa(lp45
g3
ag4
aI0
aF5.1461570262908936
aF0.58999999999999997
aF-1.2
aF-0.16
aI1605
aI-969
aI-450
aF-168.36000000000001
aF766.36000000000001
aF-142.59999999999999
aa(lp46
g3
ag4
aI0
aF5.2505109310150146
aF0.64000000000000001
aF-1.25
aF-0.14999999999999999
aI2144
aI2116
aI-1235
aF-175.72
aF759
aF-162.84
aa(lp47
g3
ag4
aI0
aF5.3632018566131592
aF0.51000000000000001
aF-1.1599999999999999
aF-0.10000000000000001
aI1185
aI-1669
aI2979
aF-169.28
aF771.88
aF-173.88
aa(lp48
g3
ag4
aI0
aF5.4780118465423584
aF0.44
aF-1.0600000000000001
aF-0.14999999999999999
aI-4619
aI2424
aI4199
aF-135.24000000000001
aF807.75999999999999
aF-163.75999999999999
aa(lp49
g3
ag4
aI0
aF5.6459989547729492
aF0.31
aF-0.80000000000000004
aF-0.13
aI-3486
aI591
aI4131
aF-77.280000000000001
aF856.51999999999998
aF-125.12
aa(lp50
g3
ag4
aI0
aF5.7465529441833496
aF0.35999999999999999
aF-0.85999999999999999
aF-0.16
aI-1595
aI2025
aI102
aF-57.039999999999999
aF875.84000000000003
aF-131.56
aa(lp51
g3
ag4
aI0
aF5.8460679054260254
aF0.27000000000000002
aF-0.82999999999999996
aF-0.17999999999999999
aI-932
aI-1065
aI-1823
aF-57.039999999999999
aF873.08000000000004
aF-129.72
aa(lp52
g3
ag4
aI0
aF5.983098030090332
aF0.23000000000000001
aF-0.81999999999999995
aF-0.22
aI2038
aI-2555
aI-3624
aF-76.359999999999999
aF858.36000000000001
aF-129.72
aa(lp53
g3
ag4
aI0
aF6.145129919052124
aF0.25
aF-0.90000000000000002
aF-0.23000000000000001
aI2243
aI160
aI-5641
aF-113.16
aF826.15999999999997
aF-131.56
aa(lp54
g3
ag4
aI0
aF6.244952917098999
aF0.37
aF-0.97999999999999998
aF-0.22
aI620
aI-1227
aI-3055
aF-149.96000000000001
aF789.36000000000001
aF-143.52000000000001
aa(lp55
g3
ag4
aI0
aF6.3481748104095459
aF0.38
aF-0.98999999999999999
aF-0.19
aI22
aI1770
aI-1407
aF-156.40000000000001
aF775.55999999999995
aF-133.40000000000001
aa(lp56
g3
ag4
aI0
aF6.4968400001525879
aF0.42999999999999999
aF-0.98999999999999999
aF-0.17000000000000001
aI1300
aI-2171
aI2571
aF-166.52000000000001
aF768.20000000000005
aF-146.28
aa(lp57
g3
ag4
aI0
aF6.6454358100891113
aF0.44
aF-1.05
aF-0.16
aI311
aI-6479
aI3901
aF-154.56
aF781.08000000000004
aF-122.36
aa(lp58
g3
ag4
aI0
aF6.7455768585205078
aF0.41999999999999998
aF-1.1100000000000001
aF-0.17999999999999999
aI-1540
aI270
aI174
aF-146.28
aF785.67999999999995
aF-110.40000000000001
aa(lp59
g3
ag4
aI0
aF6.860605001449585
aF0.42999999999999999
aF-1.0800000000000001
aF-0.22
aI-1101
aI2563
aI-1551
aF-152.72
aF776.48000000000002
aF-114.08
aa(lp60
g3
ag4
aI0
aF6.9819748401641846
aF0.58999999999999997
aF-1.24
aF-0.20999999999999999
aI2324
aI4178
aI-3176
aF-162.84
aF763.60000000000002
aF-121.44
aa(lp61
g3
ag4
aI0
aF7.1454458236694336
aF0.65000000000000002
aF-1.1799999999999999
aF-0.17999999999999999
aI2106
aI7809
aI-928
aF-175.72
aF762.67999999999995
aF-185.84
aa(lp62
g3
ag4
aI0
aF7.245952844619751
aF0.5
aF-1.05
aF-0.12
aI440
aI-3680
aI4564
aF-161.91999999999999
aF790.27999999999997
aF-186.75999999999999
aa(lp63
g3
ag4
aI0
aF7.3605940341949463
aF0.37
aF-0.97999999999999998
aF-0.12
aI-333
aI-1880
aI7354
aF-105.8
aF842.72000000000003
aF-152.72
aa(lp64
g3
ag4
aI0
aF7.4791789054870605
aF0.28000000000000003
aF-0.77000000000000002
aF-0.12
aI-2754
aI-391
aI3705
aF-52.439999999999998
aF874.91999999999996
aF-135.24000000000001
aa(lp65
g3
ag4
aI0
aF7.6461429595947266
aF0.31
aF-0.82999999999999996
aF-0.14999999999999999
aI-281
aI1287
aI-5076
aF-63.479999999999997
aF874.91999999999996
aF-139.84
aa(lp66
g3
ag4
aI0
aF7.745114803314209
aF0.29999999999999999
aF-0.83999999999999997
aF-0.20999999999999999
aI-78
aI2565
aI-6811
aF-98.439999999999998
aF843.63999999999999
aF-138.91999999999999
aa(lp67
g3
ag4
aI0
aF7.8720388412475586
aF0.38
aF-0.93999999999999995
aF-0.22
aI1618
aI3717
aI-7721
aF-120.52
aF824.32000000000005
aF-141.68000000000001
aa(lp68
g3
ag4
aI0
aF8.0453379154205322
aF0.40000000000000002
aF-0.96999999999999997
aF-0.20999999999999999
aI119
aI-856
aI-3332
aF-155.47999999999999
aF785.67999999999995
aF-142.59999999999999
aa(lp69
g3
ag4
aI0
aF8.1457798480987549
aF0.40000000000000002
aF-0.97999999999999998
aF-0.20000000000000001
aI-47
aI557
aI-1834
aF-169.28
aF764.51999999999998
aF-136.16
aa(lp70
g3
ag4
aI0
aF8.245675802230835
aF0.41999999999999998
aF-0.95999999999999996
aF-0.20000000000000001
aI-910
aI1680
aI-523
aF-182.16
aF747.96000000000004
aF-135.24000000000001
aa(lp71
g3
ag4
aI0
aF8.3658008575439453
aF0.42999999999999999
aF-0.98999999999999999
aF-0.22
aI-1339
aI-616
aI352
aF-188.59999999999999
aF740.60000000000002
aF-137.08000000000001
aa(lp72
g3
ag4
aI0
aF8.4805059432983398
aF0.46000000000000002
aF-1.02
aF-0.20000000000000001
aI-1042
aI-22
aI231
aF-184
aF739.67999999999995
aF-125.12
aa(lp73
g3
ag4
aI0
aF8.6460919380187988
aF0.51000000000000001
aF-1.0800000000000001
aF-0.22
aI1161
aI-535
aI1279
aF-180.31999999999999
aF737.84000000000003
aF-119.59999999999999
aa(lp74
g3
ag4
aI0
aF8.7448329925537109
aF0.55000000000000004
aF-1.1000000000000001
aF-0.23999999999999999
aI226
aI1767
aI-1231
aF-184.91999999999999
aF733.24000000000001
aF-121.44
aa(lp75
g3
ag4
aI0
aF8.8655798435211182
aF0.63
aF-1.2
aF-0.20999999999999999
aI1220
aI4617
aI-1185
aF-190.44
aF736.91999999999996
aF-133.40000000000001
aa(lp76
g3
ag4
aI0
aF9.0066959857940674
aF0.59999999999999998
aF-1.1699999999999999
aF-0.17000000000000001
aI-1165
aI-636
aI2794
aF-190.44
aF740.60000000000002
aF-155.47999999999999
aa(lp77
g3
ag4
aI0
aF9.1461319923400879
aF0.44
aF-0.97999999999999998
aF-0.22
aI-4288
aI631
aI6804
aF-161
aF781.08000000000004
aF-144.44
aa(lp78
g3
ag4
aI0
aF9.2461309432983398
aF0.28999999999999998
aF-0.80000000000000004
aF-0.23999999999999999
aI-5181
aI-823
aI5334
aF-113.16
aF834.44000000000005
aF-134.31999999999999
aa(lp79
g3
ag4
aI0
aF9.3606679439544678
aF0.27000000000000002
aF-0.66000000000000003
aF-0.20999999999999999
aI165
aI839
aI2787
aF-69
aF857.44000000000005
aF-109.48
aa(lp80
g3
ag4
aI0
aF9.4819400310516357
aF0.34000000000000002
aF-0.73999999999999999
aF-0.16
aI5600
aI1182
aI-5600
aF-75.439999999999998
aF858.36000000000001
aF-121.44
aa(lp81
g3
ag4
aI0
aF9.6459929943084717
aF0.40000000000000002
aF-0.82999999999999996
aF-0.22
aI-380
aI3920
aI-7862
aF-91.079999999999998
aF841.79999999999995
aF-109.48
aa(lp82
g3
ag4
aI0
aF9.7465438842773438
aF0.40000000000000002
aF-0.88
aF-0.20999999999999999
aI-399
aI933
aI-6083
aF-139.84
aF803.15999999999997
aF-144.44
aa(lp83
g3
ag4
aI0
aF9.8780608177185059
aF0.44
aF-0.91000000000000003
aF-0.17000000000000001
aI-245
aI389
aI-4133
aF-159.16
aF780.15999999999997
aF-139.84
aa(lp84
g3
ag4
aI0
aF10.045288801193237
aF0.53000000000000003
aF-0.98999999999999999
aF-0.17000000000000001
aI-1187
aI1449
aI-2127
aF-172.96000000000001
aF759
aF-137.08000000000001
aa(lp85
g3
ag4
aI0
aF10.145970821380615
aF0.56000000000000005
aF-1.02
aF-0.20999999999999999
aI-1977
aI1183
aI-331
aF-172.96000000000001
aF751.63999999999999
aF-126.04000000000001
aa(lp86
g3
ag4
aI0
aF10.245656967163086
aF0.60999999999999999
aF-1.05
aF-0.22
aI-1612
aI3984
aI-452
aF-167.44
aF754.39999999999998
aF-116.84
aa(lp87
g3
ag4
aI0
aF10.35922384262085
aF0.56999999999999995
aF-1.05
aF-0.25
aI-892
aI-866
aI465
aF-157.31999999999999
aF768.20000000000005
aF-110.40000000000001
aa(lp88
g3
ag4
aI0
aF10.480798959732056
aF0.56999999999999995
aF-1.1299999999999999
aF-0.28999999999999998
aI1166
aI165
aI-1033
aF-154.56
aF766.36000000000001
aF-108.56
aa(lp89
g3
ag4
aI0
aF10.645939826965332
aF0.57999999999999996
aF-1.2
aF-0.23999999999999999
aI3808
aI2984
aI-949
aF-161
aF761.75999999999999
aF-113.16
aa(lp90
g3
ag4
aI0
aF10.746358871459961
aF0.56000000000000005
aF-1.1399999999999999
aF-0.16
aI1501
aI2868
aI-954
aF-173.88
aF756.24000000000001
aF-143.52000000000001
aa(lp91
g3
ag4
aI0
aF10.881799936294556
aF0.54000000000000004
aF-1.0900000000000001
aF-0.13
aI938
aI-3295
aI4855
aF-169.28
aF773.72000000000003
aF-155.47999999999999
aa(lp92
g3
ag4
aI0
aF11.046056985855103
aF0.42999999999999999
aF-0.90000000000000002
aF-0.16
aI-4351
aI3440
aI4026
aF-134.31999999999999
aF808.67999999999995
aF-145.36000000000001
aa(lp93
g3
ag4
aI0
aF11.145776987075806
aF0.34999999999999998
aF-0.79000000000000004
aF-0.20000000000000001
aI-3649
aI-376
aI3272
aF-107.64
aF839.96000000000004
aF-143.52000000000001
aa(lp94
g3
ag4
aI0
aF11.245040893554688
aF0.34000000000000002
aF-0.81999999999999995
aF-0.17999999999999999
aI225
aI2218
aI-1035
aF-83.719999999999999
aF860.20000000000005
aF-131.56
aa(lp95
g3
ag4
aI0
aF11.360642910003662
aF0.34000000000000002
aF-0.90000000000000002
aF-0.20999999999999999
aI138
aI1754
aI-3460
aF-97.519999999999996
aF840.88
aF-131.56
aa(lp96
g3
ag4
aI0
aF11.519461870193481
aF0.34000000000000002
aF-0.85999999999999999
aF-0.26000000000000001
aI6
aI141
aI-3635
aF-126.95999999999999
aF813.27999999999997
aF-136.16
aa(lp97
g3
ag4
aI0
aF11.645713806152344
aF0.35999999999999999
aF-0.83999999999999997
aF-0.23999999999999999
aI463
aI1305
aI-5644
aF-141.68000000000001
aF798.55999999999995
aF-136.16
aa(lp98
g3
ag4
aI0
aF11.744855880737305
aF0.48999999999999999
aF-0.91000000000000003
aF-0.19
aI1314
aI98
aI-3975
aF-164.68000000000001
aF771.88
aF-135.24000000000001
aa(lp99
g3
ag4
aI0
aF11.865784883499146
aF0.54000000000000004
aF-0.95999999999999996
aF-0.14999999999999999
aI1016
aI-394
aI-1940
aF-170.19999999999999
aF754.39999999999998
aF-125.12
aa(lp100
g3
ag4
aI0
aF11.991750955581665
aF0.59999999999999998
aF-1.05
aF-0.17999999999999999
aI-3457
aI-961
aI-2219
aF-170.19999999999999
aF754.39999999999998
aF-116.84
aa(lp101
g3
ag4
aI0
aF12.145229816436768
aF0.60999999999999999
aF-1.03
aF-0.20000000000000001
aI-2851
aI2737
aI-1486
aF-172.03999999999999
aF738.75999999999999
aF-92.920000000000002
aa(lp102
g3
ag4
aI0
aF12.245064973831177
aF0.64000000000000001
aF-1.0700000000000001
aF-0.25
aI-434
aI-378
aI1217
aF-166.52000000000001
aF747.03999999999996
aF-92
aa(lp103
g3
ag4
aI0
aF12.358227014541626
aF0.62
aF-1.0900000000000001
aF-0.28999999999999998
aI-761
aI976
aI-764
aF-162.84
aF750.72000000000003
aF-91.079999999999998
aa(lp104
g3
ag4
aI0
aF12.496871948242188
aF0.60999999999999999
aF-1.1899999999999999
aF-0.32000000000000001
aI1508
aI1487
aI-428
aF-161
aF755.32000000000005
aF-93.840000000000003
aa(lp105
g3
ag4
aI0
aF12.645835876464844
aF0.55000000000000004
aF-1.1499999999999999
aF-0.28999999999999998
aI1554
aI1439
aI1851
aF-169.28
aF749.79999999999995
aF-118.68000000000001
aa(lp106
g3
ag4
aI0
aF12.745527982711792
aF0.44
aF-0.97999999999999998
aF-0.23999999999999999
aI398
aI-1024
aI5750
aF-155.47999999999999
aF776.48000000000002
aF-127.88
aa(lp107
g3
ag4
aI0
aF12.849327802658081
aF0.41999999999999998
aF-0.96999999999999997
aF-0.17999999999999999
aI345
aI-1618
aI5264
aF-115
aF819.72000000000003
aF-118.68000000000001
aa(lp108
g3
ag4
aI0
aF12.995458841323853
aF0.31
aF-0.79000000000000004
aF-0.23999999999999999
aI-6236
aI-3603
aI5754
aF-71.760000000000005
aF855.60000000000002
aF-105.8
aa(lp109
g3
ag4
aI0
aF13.14526891708374
aF0.29999999999999999
aF-0.79000000000000004
aF-0.22
aI1398
aI-707
aI-749
aF-48.759999999999998
aF868.48000000000002
aF-100.28
aa(lp110
g3
ag4
aI0
aF13.245054960250854
aF0.23999999999999999
aF-0.82999999999999996
aF-0.23999999999999999
aI1204
aI1766
aI-3851
aF-77.280000000000001
aF849.15999999999997
aF-98.439999999999998
aa(lp111
g3
ag4
aI0
aF13.355666875839233
aF0.26000000000000001
aF-0.93999999999999995
aF-0.28999999999999998
aI2741
aI-441
aI-2096
aF-96.599999999999994
aF828
aF-103.04000000000001
aa(lp112
g3
ag4
aI0
aF13.489092826843262
aF0.28000000000000003
aF-0.93000000000000005
aF-0.32000000000000001
aI243
aI-374
aI-2178
aF-127.88
aF804.08000000000004
aF-114.08
aa(lp113
g3
ag4
aI0
aF13.645933866500854
aF0.27000000000000002
aF-0.90000000000000002
aF-0.29999999999999999
aI935
aI1107
aI-2965
aF-148.12
aF782
aF-114.08
aa(lp114
g3
ag4
aI0
aF13.745555877685547
aF0.34000000000000002
aF-0.96999999999999997
aF-0.26000000000000001
aI2947
aI-2053
aI-399
aF-165.59999999999999
aF763.60000000000002
aF-118.68000000000001
aa(lp115
g3
ag4
aI0
aF13.86314582824707
aF0.40000000000000002
aF-1
aF-0.28999999999999998
aI-164
aI174
aI180
aF-171.12
aF754.39999999999998
aF-116.84
aa(lp116
g3
ag4
aI0
aF13.976924896240234
aF0.41999999999999998
aF-1.03
aF-0.26000000000000001
aI-681
aI1533
aI-758
aF-172.96000000000001
aF749.79999999999995
aF-117.76000000000001
aa(lp117
g3
ag4
aI0
aF14.145195960998535
aF0.48999999999999999
aF-1.01
aF-0.23000000000000001
aI-728
aI-314
aI-192
aF-175.72
aF745.20000000000005
aF-123.28
aa(lp118
g3
ag4
aI0
aF14.245860815048218
aF0.57999999999999996
aF-1.1100000000000001
aF-0.22
aI1626
aI-1806
aI780
aF-175.72
aF751.63999999999999
aF-118.68000000000001
aa(lp119
g3
ag4
aI0
aF14.35668683052063
aF0.59999999999999998
aF-1.2
aF-0.20000000000000001
aI3112
aI1934
aI1288
aF-181.24000000000001
aF743.36000000000001
aF-126.04000000000001
aa(lp120
g3
ag4
aI0
aF14.498116970062256
aF0.52000000000000002
aF-1.1599999999999999
aF-0.23999999999999999
aI635
aI2922
aI1978
aF-181.24000000000001
aF750.72000000000003
aF-143.52000000000001
aa(lp121
g3
ag4
aI0
aF14.645838975906372
aF0.45000000000000001
aF-0.97999999999999998
aF-0.17999999999999999
aI-651
aI1907
aI2275
aF-155.47999999999999
aF782
aF-144.44
aa(lp122
g3
ag4
aI0
aF14.746472835540771
aF0.44
aF-0.95999999999999996
aF-0.16
aI621
aI-798
aI6026
aF-117.76000000000001
aF818.79999999999995
aF-123.28
aa(lp123
g3
ag4
aI0
aF14.849303007125854
aF0.29999999999999999
aF-0.81999999999999995
aF-0.20000000000000001
aI-2765
aI-495
aI5970
aF-67.159999999999997
aF858.36000000000001
aF-99.359999999999999
aa(lp124
g3
ag4
aI0
aF14.978261947631836
aF0.26000000000000001
aF-0.79000000000000004
aF-0.27000000000000002
aI-3102
aI-563
aI-2111
aF-80.040000000000006
aF850.08000000000004
aF-109.48
aa(lp125
g3
ag4
aI0
aF15.145839929580688
aF0.27000000000000002
aF-0.84999999999999998
aF-0.31
aI459
aI2468
aI-4696
aF-95.680000000000007
aF841.79999999999995
aF-112.23999999999999
aa(lp126
g3
ag4
aI0
aF15.245558977127075
aF0.29999999999999999
aF-0.89000000000000001
aF-0.31
aI1136
aI218
aI-3191
aF-122.36
aF815.12
aF-120.52
aa(lp127
g3
ag4
aI0
aF15.365736961364746
aF0.31
aF-0.92000000000000004
aF-0.31
aI-983
aI-2303
aI-2530
aF-140.75999999999999
aF797.63999999999999
aF-123.28
aa(lp128
g3
ag4
aI0
aF15.480748891830444
aF0.28999999999999998
aF-0.91000000000000003
aF-0.32000000000000001
aI-981
aI945
aI-2077
aF-138
aF788.44000000000005
aF-101.2
aa(lp129
g3
ag4
aI0
aF15.64489483833313
aF0.28000000000000003
aF-0.92000000000000004
aF-0.31
aI781
aI587
aI276
aF-144.44
aF776.48000000000002
aF-91.079999999999998
aa(lp130
g3
ag4
aI0
aF15.745611906051636
aF0.33000000000000002
aF-0.95999999999999996
aF-0.26000000000000001
aI-1031
aI-145
aI-634
aF-149.96000000000001
aF774.63999999999999
aF-95.680000000000007
aa(lp131
g3
ag4
aI0
aF15.869498014450073
aF0.40000000000000002
aF-1
aF-0.28000000000000003
aI-1621
aI-1059
aI247
aF-150.88
aF768.20000000000005
aF-86.480000000000004
aa(lp132
g3
ag4
aI0
aF16.045338869094849
aF0.37
aF-1.01
aF-0.34999999999999998
aI-148
aI-3734
aI762
aF-142.59999999999999
aF768.20000000000005
aF-77.280000000000001
aa(lp133
g3
ag4
aI0
aF16.144719839096069
aF0.51000000000000001
aF-1.23
aF-0.40000000000000002
aI-241
aI5414
aI-2646
aF-129.72
aF769.12
aF-65.319999999999993
aa(lp134
g3
ag4
aI0
aF16.245615005493164
aF0.48999999999999999
aF-1.23
aF-0.33000000000000002
aI2608
aI531
aI465
aF-149.96000000000001
aF762.67999999999995
aF-83.719999999999999
aa(lp135
g3
ag4
aI0
aF16.356976985931396
aF0.41999999999999998
aF-1.22
aF-0.29999999999999999
aI1133
aI2214
aI-998
aF-163.75999999999999
aF759
aF-110.40000000000001
aa(lp136
g3
ag4
aI0
aF16.473181009292603
aF0.38
aF-0.95999999999999996
aF-0.25
aI-1152
aI-281
aI3575
aF-170.19999999999999
aF762.67999999999995
aF-141.68000000000001
aa(lp137
g3
ag4
aI0
aF16.645569801330566
aF0.31
aF-0.87
aF-0.26000000000000001
aI-2040
aI-3291
aI6242
aF-140.75999999999999
aF798.55999999999995
aF-139.84
aa(lp138
g3
ag4
aI0
aF16.744933843612671
aF0.27000000000000002
aF-0.71999999999999997
aF-0.20000000000000001
aI-1926
aI-2009
aI4740
aF-93.840000000000003
aF835.36000000000001
aF-114.08
aa(lp139
g3
ag4
aI0
aF16.850572824478149
aF0.28000000000000003
aF-0.71999999999999997
aF-0.20000000000000001
aI-40
aI174
aI-994
aF-95.680000000000007
aF839.96000000000004
aF-111.31999999999999
aa(lp140
g3
ag4
aI0
aF17.000783920288086
aF0.32000000000000001
aF-0.80000000000000004
aF-0.26000000000000001
aI-731
aI885
aI-4327
aF-110.40000000000001
aF825.24000000000001
aF-116.84
aa(lp141
g3
ag4
aI0
aF17.145823001861572
aF0.34000000000000002
aF-0.82999999999999996
aF-0.27000000000000002
aI1056
aI68
aI-2773
aF-128.80000000000001
aF802.24000000000001
aF-115.92
aa(lp142
g3
ag4
aI0
aF17.244829893112183
aF0.33000000000000002
aF-0.90000000000000002
aF-0.28000000000000003
aI857
aI-89
aI-1659
aF-149.96000000000001
aF786.60000000000002
aF-119.59999999999999
aa(lp143
g3
ag4
aI0
aF17.358253955841064
aF0.34999999999999998
aF-0.92000000000000004
aF-0.28000000000000003
aI188
aI-1163
aI-349
aF-157.31999999999999
aF774.63999999999999
aF-119.59999999999999
aa(lp144
g3
ag4
aI0
aF17.47179388999939
aF0.34000000000000002
aF-1.01
aF-0.31
aI91
aI3222
aI-444
aF-140.75999999999999
aF780.15999999999997
aF-100.28
aa(lp145
g3
ag4
aI0
aF17.644919872283936
aF0.37
aF-1.01
aF-0.28999999999999998
aI-929
aI1889
aI193
aF-144.44
aF783.84000000000003
aF-108.56
aa(lp146
g3
ag4
aI0
aF17.744668006896973
aF0.37
aF-1.05
aF-0.28000000000000003
aI-1753
aI4725
aI-928
aF-138
aF783.84000000000003
aF-98.439999999999998
aa(lp147
g3
ag4
aI0
aF17.864410877227783
aF0.42999999999999999
aF-1.1000000000000001
aF-0.28999999999999998
aI-2214
aI2601
aI-535
aF-138.91999999999999
aF787.51999999999998
aF-105.8
aa(lp148
g3
ag4
aI0
aF17.972945928573608
aF0.48999999999999999
aF-1.23
aF-0.28999999999999998
aI1400
aI2784
aI-88
aF-141.68000000000001
aF792.12
aF-108.56
aa(lp149
g3
ag4
aI0
aF18.14591383934021
aF0.44
aF-1.24
aF-0.25
aI2652
aI3257
aI139
aF-152.72
aF786.60000000000002
aF-134.31999999999999
aa(lp150
g3
ag4
aI0
aF18.245832920074463
aF0.29999999999999999
aF-1.04
aF-0.27000000000000002
aI-1637
aI-1650
aI5729
aF-131.56
aF812.36000000000001
aF-148.12
aa(lp151
g3
ag4
aI0
aF18.345450878143311
aF0.17999999999999999
aF-0.81000000000000005
aF-0.20999999999999999
aI-6694
aI-784
aI5056
aF-77.280000000000001
aF856.51999999999998
aF-121.44
aa(lp152
g3
ag4
aI0
aF18.461709022521973
aF0.23999999999999999
aF-0.84999999999999998
aF-0.20000000000000001
aI2812
aI4845
aI-843
aF-73.599999999999994
aF858.36000000000001
aF-125.12
aa(lp153
g3
ag4
aI0
aF18.592204809188843
aF0.32000000000000001
aF-0.75
aF-0.19
aI-363
aI656
aI-3637
aF-96.599999999999994
aF838.12
aF-125.12
aa(lp154
g3
ag4
aI0
aF18.74550199508667
aF0.38
aF-0.69999999999999996
aF-0.19
aI2405
aI-537
aI-6657
aF-110.40000000000001
aF828.91999999999996
aF-127.88
aa(lp155
g3
ag4
aI0
aF18.845695018768311
aF0.52000000000000002
aF-0.89000000000000001
aF-0.17000000000000001
aI3376
aI2472
aI-6573
aF-143.52000000000001
aF791.20000000000005
aF-123.28
aa(lp156
g3
ag4
aI0
aF18.981719017028809
aF0.55000000000000004
aF-0.93999999999999995
aF-0.17999999999999999
aI-283
aI-3815
aI-2071
aF-171.12
aF756.24000000000001
aF-125.12
aa(lp157
g3
ag4
aI0
aF19.14583683013916
aF0.59999999999999998
aF-1.0600000000000001
aF-0.22
aI1065
aI5459
aI3820
aF-172.03999999999999
aF759
aF-127.88
aa(lp158
g3
ag4
aI0
aF19.245517015457153
aF0.42999999999999999
aF-1.0600000000000001
aF-0.22
aI-525
aI768
aI3440
aF-139.84
aF804.08000000000004
aF-156.40000000000001
aa(lp159
g3
ag4
aI0
aF19.364243030548096
aF0.28000000000000003
aF-1.02
aF-0.17999999999999999
aI-1109
aI627
aI1428
aF-126.95999999999999
aF820.63999999999999
aF-155.47999999999999
aa(lp160
g3
ag4
aI0
aF19.479530811309814
aF0.33000000000000002
aF-1.0600000000000001
aF-0.14000000000000001
aI1819
aI-3535
aI1253
aF-131.56
aF813.27999999999997
aF-150.88
aa(lp161
g3
ag4
aI0
aF19.645816802978516
aF0.38
aF-1.0600000000000001
aF-0.14999999999999999
aI1326
aI-2919
aI829
aF-126.95999999999999
aF814.20000000000005
aF-142.59999999999999
aa(lp162
g3
ag4
aI0
aF19.744709968566895
aF0.40999999999999998
aF-1.03
aF-0.17000000000000001
aI-689
aI2608
aI-1241
aF-126.95999999999999
aF814.20000000000005
aF-136.16
aa(lp163
g3
ag4
aI0
aF19.850515842437744
aF0.39000000000000001
aF-0.97999999999999998
aF-0.19
aI-1338
aI4251
aI-2023
aF-132.47999999999999
aF809.60000000000002
aF-148.12
aa(lp164
g3
ag4
aI0
aF19.988461971282959
aF0.40999999999999998
aF-0.98999999999999999
aF-0.17000000000000001
aI-101
aI635
aI53
aF-142.59999999999999
aF801.32000000000005
aF-159.16
aa(lp165
g3
ag4
aI0
aF20.145098924636841
aF0.40999999999999998
aF-1.01
aF-0.17000000000000001
aI94
aI-820
aI459
aF-144.44
aF800.39999999999998
aF-159.16
aa(lp166
g3
ag4
aI0
aF20.245146989822388
aF0.39000000000000001
aF-1.01
aF-0.16
aI-293
aI621
aI328
aF-138
aF807.75999999999999
aF-155.47999999999999
aa(lp167
g3
ag4
aI0
aF20.356920957565308
aF0.38
aF-1.01
aF-0.16
aI-84
aI126
aI491
aF-137.08000000000001
aF809.60000000000002
aF-154.56
aa(lp168
g3
ag4
aI0
aF20.481854915618896
aF0.37
aF-1
aF-0.16
aI206
aI-726
aI702
aF-137.08000000000001
aF812.36000000000001
aF-155.47999999999999
aa(lp169
g3
ag4
aI0
aF20.645714998245239
aF0.34999999999999998
aF-1.01
aF-0.17000000000000001
aI-4
aI-177
aI388
aF-133.40000000000001
aF812.36000000000001
aF-153.63999999999999
aa(lp170
g3
ag4
aI0
aF20.745012998580933
aF0.34999999999999998
aF-1.02
aF-0.17999999999999999
aI-506
aI1133
aI93
aF-128.80000000000001
aF819.72000000000003
aF-149.96000000000001
aa(lp171
g3
ag4
aI0
aF20.845410823822021
aF0.34999999999999998
aF-1.02
aF-0.19
aI-921
aI477
aI70
aF-124.2
aF821.55999999999995
aF-149.03999999999999
aa(lp172
g3
ag4
aI0
aF20.975636005401611
aF0.34000000000000002
aF-1.01
aF-0.20999999999999999
aI-1512
aI1587
aI-638
aF-122.36
aF827.08000000000004
aF-144.44
aa(lp173
g3
ag4
aI0
aF21.145746946334839
aF0.33000000000000002
aF-1.01
aF-0.19
aI258
aI-295
aI963
aF-117.76000000000001
aF827.08000000000004
aF-147.19999999999999
aa(lp174
g3
ag4
aI0
aF21.245187997817993
aF0.31
aF-1.02
aF-0.20000000000000001
aI612
aI-1136
aI993
aF-118.68000000000001
aF824.32000000000005
aF-146.28
aa(lp175
g3
ag4
aI0
aF21.345566034317017
aF0.32000000000000001
aF-1.02
aF-0.20999999999999999
aI-591
aI963
aI-239
aF-115.92
aF829.84000000000003
aF-146.28
aa(lp176
g3
ag4
aI0
aF21.445498943328857
aF0.32000000000000001
aF-1.02
aF-0.22
aI-574
aI125
aI273
aF-110.40000000000001
aF829.84000000000003
aF-146.28
aa(lp177
g3
ag4
aI0
aF21.586897850036621
aF0.29999999999999999
aF-1.01
aF-0.22
aI-239
aI-415
aI725
aF-114.08
aF834.44000000000005
aF-144.44
aa(lp178
g3
ag4
aI0
aF21.74546480178833
aF0.31
aF-1.01
aF-0.23000000000000001
aI-683
aI758
aI91
aF-105.8
aF837.20000000000005
aF-139.84
aa(lp179
g3
ag4
aI0
aF21.845362901687622
aF0.31
aF-1.01
aF-0.25
aI-361
aI183
aI456
aF-104.88
aF837.20000000000005
aF-137.08000000000001
aa(lp180
g3
ag4
aI0
aF21.945621967315674
aF0.31
aF-1.01
aF-0.25
aI-306
aI342
aI308
aF-98.439999999999998
aF839.03999999999996
aF-136.16
aa(lp181
g3
ag4
aI0
aF22.07063889503479
aF0.28000000000000003
aF-1.02
aF-0.25
aI-2
aI242
aI283
aF-98.439999999999998
aF842.72000000000003
aF-136.16
aa(lp182
g3
ag4
aI0
aF22.246012926101685
aF0.26000000000000001
aF-1.03
aF-0.25
aI-215
aI155
aI-270
aF-95.680000000000007
aF842.72000000000003
aF-134.31999999999999
aa(lp183
g3
ag4
aI0
aF22.345539808273315
aF0.27000000000000002
aF-1.03
aF-0.25
aI-229
aI1021
aI-701
aF-97.519999999999996
aF839.96000000000004
aF-132.47999999999999
aa(lp184
g3
ag4
aI0
aF22.448115825653076
aF0.27000000000000002
aF-1.02
aF-0.23999999999999999
aI523
aI267
aI253
aF-104.88
aF836.27999999999997
aF-137.08000000000001
aa(lp185
g3
ag4
aI0
aF22.566902875900269
aF0.27000000000000002
aF-1.01
aF-0.23000000000000001
aI544
aI-376
aI520
aF-106.72
aF834.44000000000005
aF-144.44
aa(lp186
g3
ag4
aI0
aF22.699343919754028
aF0.28000000000000003
aF-1
aF-0.23999999999999999
aI71
aI501
aI-722
aF-111.31999999999999
aF834.44000000000005
aF-140.75999999999999
aa(lp187
g3
ag4
aI0
aF22.844990015029907
aF0.28999999999999998
aF-1.02
aF-0.23999999999999999
aI596
aI-687
aI179
aF-112.23999999999999
aF828
aF-144.44
aa(lp188
g3
ag4
aI0
aF22.945242881774902
aF0.28999999999999998
aF-1.02
aF-0.23999999999999999
aI438
aI-22
aI416
aF-115
aF826.15999999999997
aF-144.44
aa(lp189
g3
ag4
aI0
aF23.045796871185303
aF0.31
aF-1.01
aF-0.23999999999999999
aI-580
aI1072
aI-612
aF-115.92
aF826.15999999999997
aF-149.03999999999999
aa(lp190
g3
ag4
aI0
aF23.161747932434082
aF0.33000000000000002
aF-1
aF-0.23000000000000001
aI221
aI360
aI45
aF-117.76000000000001
aF828
aF-151.80000000000001
aa(lp191
g3
ag4
aI0
aF23.308125972747803
aF0.32000000000000001
aF-1.01
aF-0.23000000000000001
aI931
aI-1296
aI795
aF-115.92
aF831.67999999999995
aF-149.03999999999999
aa(lp192
g3
ag4
aI0
aF23.444700956344604
aF0.31
aF-1.02
aF-0.23999999999999999
aI-13
aI175
aI292
aF-117.76000000000001
aF827.08000000000004
aF-149.03999999999999
aa(lp193
g3
ag4
aI0
aF23.546870946884155
aF0.32000000000000001
aF-1.01
aF-0.23999999999999999
aI-243
aI-66
aI254
aF-115.92
aF830.75999999999999
aF-147.19999999999999
aa(lp194
g3
ag4
aI0
aF23.68330192565918
aF0.29999999999999999
aF-1.01
aF-0.25
aI286
aI-1096
aI589
aF-112.23999999999999
aF832.60000000000002
aF-146.28
aa(lp195
g3
ag4
aI0
aF23.844832897186279
aF0.28999999999999998
aF-1.01
aF-0.25
aI-77
aI20
aI204
aF-108.56
aF833.51999999999998
aF-145.36000000000001
aa(lp196
g3
ag4
aI0
aF23.944361925125122
aF0.29999999999999999
aF-1.02
aF-0.26000000000000001
aI-377
aI147
aI-164
aF-110.40000000000001
aF832.60000000000002
aF-145.36000000000001
aa(lp197
g3
ag4
aI0
aF24.044344902038574
aF0.29999999999999999
aF-1.01
aF-0.27000000000000002
aI-77
aI854
aI373
aF-109.48
aF834.44000000000005
aF-142.59999999999999
aa(lp198
g3
ag4
aI0
aF24.14939284324646
aF0.28999999999999998
aF-1.01
aF-0.27000000000000002
aI17
aI-149
aI252
aF-106.72
aF836.27999999999997
aF-143.52000000000001
aa(lp199
g3
ag4
aI0
aF24.268199920654297
aF0.29999999999999999
aF-1.01
aF-0.28000000000000003
aI-189
aI611
aI-482
aF-106.72
aF836.27999999999997
aF-139.84
aa(lp200
g3
ag4
aI0
aF24.404567003250122
aF0.29999999999999999
aF-1.01
aF-0.27000000000000002
aI443
aI1074
aI18
aF-110.40000000000001
aF832.60000000000002
aF-142.59999999999999
aa(lp201
g3
ag4
aI0
aF24.545586824417114
aF0.28999999999999998
aF-1
aF-0.26000000000000001
aI78
aI-1105
aI423
aF-115.92
aF831.67999999999995
aF-147.19999999999999
aa(lp202
g3
ag4
aI0
aF24.655725955963135
aF0.28000000000000003
aF-1
aF-0.26000000000000001
aI-484
aI463
aI24
aF-115
aF832.60000000000002
aF-142.59999999999999
aa(lp203
g3
ag4
aI0
aF24.780661821365356
aF0.29999999999999999
aF-1
aF-0.28000000000000003
aI-727
aI478
aI-176
aF-110.40000000000001
aF831.67999999999995
aF-139.84
aa(lp204
g3
ag4
aI0
aF24.945122003555298
aF0.29999999999999999
aF-1
aF-0.28999999999999998
aI-85
aI-100
aI403
aF-107.64
aF834.44000000000005
aF-139.84
aa(lp205
g3
ag4
aI0
aF25.045734882354736
aF0.29999999999999999
aF-1
aF-0.29999999999999999
aI-204
aI463
aI32
aF-107.64
aF831.67999999999995
aF-138.91999999999999
aa.