(lp0
(F0.133620023727417
F0.21
F-0.13
F-0.96
tp1
a(F0.23003888130187988
F0.2
F-0.12
F-0.96
tp2
a(F0.30351901054382324
F0.21
F-0.13
F-0.95
tp3
a(F0.4134390354156494
F0.19
F-0.12
F-0.95
tp4
a(F0.5158629417419434
F0.19
F-0.12
F-0.95
tp5
a(F0.6020379066467285
F0.21
F-0.13
F-0.96
tp6
a(F0.7121360301971436
F0.21
F-0.13
F-0.96
tp7
a(F0.821868896484375
F0.21
F-0.13
F-0.96
tp8
a(F0.9082920551300049
F0.21
F-0.13
F-0.97
tp9
a(F1.0179738998413086
F0.2
F-0.16
F-0.96
tp10
a(F1.1282448768615723
F0.18
F-0.21
F-0.95
tp11
a(F1.2181260585784912
F0.17
F-0.29
F-0.93
tp12
a(F1.3282389640808105
F0.14
F-0.39
F-0.88
tp13
a(F1.4445419311523438
F0.11
F-0.57
F-0.72
tp14
a(F1.5295929908752441
F0.1
F-0.71
F-0.65
tp15
a(F1.6395559310913086
F0.09
F-0.8
F-0.54
tp16
a(F1.7295360565185547
F0.09
F-0.92
F-0.38
tp17
a(F1.8544180393218994
F0.07
F-0.97
F-0.26
tp18
a(F1.9394989013671875
F0.06
F-1.01
F-0.16
tp19
a(F2.0391929149627686
F0.06
F-1.05
F-0.11
tp20
a(F2.1495609283447266
F0.07
F-1.06
F-0.16
tp21
a(F2.2656989097595215
F0.08
F-0.98
F-0.29
tp22
a(F2.3507790565490723
F0.08
F-0.95
F-0.39
tp23
a(F2.4883110523223877
F0.09
F-0.82
F-0.54
tp24
a(F2.5520050525665283
F0.1
F-0.69
F-0.66
tp25
a(F2.6620500087738037
F0.15
F-0.56
F-0.76
tp26
a(F2.761884927749634
F0.23
F-0.36
F-0.94
tp27
a(F2.8781750202178955
F0.23
F-0.27
F-0.93
tp28
a(F2.964521884918213
F0.23
F-0.21
F-0.93
tp29
a(F3.0805249214172363
F0.22
F-0.19
F-0.93
tp30
a(F3.185581922531128
F0.24
F-0.16
F-0.95
tp31
a(F3.270904064178467
F0.23
F-0.17
F-0.96
tp32
a(F3.3805148601531982
F0.23
F-0.19
F-0.97
tp33
a(F3.465796947479248
F0.2
F-0.25
F-0.95
tp34
a(F3.5757908821105957
F0.14
F-0.38
F-0.88
tp35
a(F3.6857879161834717
F0.08
F-0.56
F-0.76
tp36
a(F3.800752878189087
F0.02
F-0.74
F-0.59
tp37
a(F3.8870930671691895
F0.0
F-0.86
F-0.43
tp38
a(F4.003182888031006
F-0.01
F-0.96
F-0.25
tp39
a(F4.088227987289429
F-0.02
F-0.99
F-0.11
tp40
a(F4.198080062866211
F-0.01
F-1.0
F-0.05
tp41
a(F4.284549951553345
F-0.02
F-1.03
F-0.02
tp42
a(F4.410655975341797
F-0.01
F-1.05
F-0.03
tp43
a(F4.495734930038452
F-0.01
F-1.02
F-0.1
tp44
a(F4.605772018432617
F0.02
F-0.97
F-0.26
tp45
a(F4.722270965576172
F0.05
F-0.93
F-0.38
tp46
a(F4.8069539070129395
F0.06
F-0.82
F-0.49
tp47
a(F4.9235520362854
F0.1
F-0.74
F-0.6
tp48
a(F5.0082409381866455
F0.13
F-0.59
F-0.74
tp49
a(F5.130776882171631
F0.19
F-0.42
F-0.84
tp50
a(F5.215906858444214
F0.24
F-0.3
F-0.91
tp51
a(F5.332066059112549
F0.26
F-0.25
F-0.93
tp52
a(F5.41720986366272
F0.26
F-0.22
F-0.94
tp53
a(F5.527154922485352
F0.26
F-0.18
F-0.94
tp54
a(F5.617264032363892
F0.23
F-0.22
F-0.94
tp55
a(F5.719590902328491
F0.21
F-0.28
F-0.95
tp56
a(F5.829575061798096
F0.15
F-0.38
F-0.9
tp57
a(F5.945888996124268
F0.11
F-0.55
F-0.82
tp58
a(F6.030828952789307
F0.03
F-0.64
F-0.69
tp59
a(F6.140843868255615
F0.01
F-0.77
F-0.6
tp60
a(F6.23086404800415
F-0.03
F-0.84
F-0.45
tp61
a(F6.330971002578735
F-0.05
F-0.95
F-0.26
tp62
a(F6.440975904464722
F-0.07
F-0.99
F-0.15
tp63
a(F6.550904035568237
F-0.08
F-0.99
F-0.07
tp64
a(F6.638375997543335
F-0.08
F-1.0
F-0.03
tp65
a(F6.748318910598755
F-0.09
F-1.01
F-0.03
tp66
a(F6.858419895172119
F-0.07
F-1.01
F-0.09
tp67
a(F6.973345041275024
F-0.03
F-1.03
F-0.22
tp68
a(F7.057699918746948
F0.01
F-0.94
F-0.37
tp69
a(F7.174665927886963
F0.06
F-0.85
F-0.51
tp70
a(F7.2596399784088135
F0.11
F-0.73
F-0.66
tp71
a(F7.369350910186768
F0.17
F-0.49
F-0.77
tp72
a(F7.459621906280518
F0.19
F-0.38
F-0.84
tp73
a(F7.569591045379639
F0.25
F-0.3
F-0.88
tp74
a(F7.673456907272339
F0.27
F-0.25
F-0.91
tp75
a(F7.789548873901367
F0.28
F-0.22
F-0.93
tp76
a(F7.874677896499634
F0.27
F-0.22
F-0.94
tp77
a(F7.984492063522339
F0.25
F-0.27
F-0.93
tp78
a(F8.073523998260498
F0.21
F-0.34
F-0.92
tp79
a(F8.183384895324707
F0.15
F-0.49
F-0.84
tp80
a(F8.31228494644165
F0.08
F-0.62
F-0.71
tp81
a(F8.378257989883423
F0.02
F-0.76
F-0.53
tp82
a(F8.488569974899292
F-0.02
F-0.89
F-0.33
tp83
a(F8.598554849624634
F-0.05
F-0.97
F-0.16
tp84
a(F8.684592962265015
F-0.08
F-0.98
F-0.06
tp85
a(F8.794400930404663
F-0.08
F-0.99
F0.03
tp86
a(F8.89329195022583
F-0.08
F-1.0
F0.07
tp87
a(F8.992312908172607
F-0.08
F-1.01
F0.07
tp88
a(F9.102256059646606
F-0.07
F-1.05
F0.02
tp89
a(F9.212095975875854
F-0.03
F-1.01
F-0.13
tp90
a(F9.298232078552246
F0.01
F-0.91
F-0.31
tp91
a(F9.408154964447021
F0.06
F-0.85
F-0.47
tp92
a(F9.518065929412842
F0.16
F-0.72
F-0.65
tp93
a(F9.61440896987915
F0.24
F-0.55
F-0.82
tp94
a(F9.74596905708313
F0.29
F-0.36
F-0.88
tp95
a(F9.837228059768677
F0.3
F-0.28
F-0.9
tp96
a(F9.922210931777954
F0.31
F-0.25
F-0.92
tp97
a(F10.03846287727356
F0.3
F-0.23
F-0.92
tp98
a(F10.123498916625977
F0.28
F-0.27
F-0.92
tp99
a(F10.27603006362915
F0.25
F-0.35
F-0.92
tp100
a(F10.348471879959106
F0.18
F-0.49
F-0.82
tp101
a(F10.43346905708313
F0.13
F-0.67
F-0.67
tp102
a(F10.549778938293457
F0.09
F-0.83
F-0.49
tp103
a(F10.643476963043213
F0.04
F-0.93
F-0.32
tp104
a(F10.733273983001709
F0.03
F-1.01
F-0.15
tp105
a(F10.843150854110718
F0.04
F-1.03
F-0.05
tp106
a(F10.943305969238281
F0.03
F-1.03
F0.01
tp107
a(F11.053303003311157
F0.02
F-1.03
F0.01
tp108
a(F11.139709949493408
F0.02
F-1.04
F-0.01
tp109
a(F11.249466896057129
F0.02
F-1.04
F-0.08
tp110
a(F11.359494924545288
F0.04
F-1.01
F-0.18
tp111
a(F11.449513912200928
F0.07
F-0.96
F-0.31
tp112
a(F11.558203935623169
F0.11
F-0.87
F-0.47
tp113
a(F11.668323040008545
F0.16
F-0.79
F-0.6
tp114
a(F11.753308057785034
F0.21
F-0.67
F-0.73
tp115
a(F11.863133907318115
F0.24
F-0.56
F-0.82
tp116
a(F11.973083019256592
F0.25
F-0.47
F-0.87
tp117
a(F12.063328981399536
F0.26
F-0.42
F-0.87
tp118
a(F12.1732919216156
F0.27
F-0.39
F-0.89
tp119
a(F12.290807008743286
F0.26
F-0.42
F-0.89
tp120
a(F12.375761032104492
F0.21
F-0.48
F-0.85
tp121
a(F12.485589981079102
F0.16
F-0.59
F-0.77
tp122
a(F12.572139024734497
F0.12
F-0.74
F-0.61
tp123
a(F12.681962966918945
F0.09
F-0.87
F-0.47
tp124
a(F12.792125940322876
F0.04
F-0.96
F-0.28
tp125
a(F12.891948938369751
F0.01
F-1.01
F-0.14
tp126
a(F13.008439064025879
F-0.02
F-1.01
F-0.03
tp127
a(F13.093261957168579
F-0.04
F-0.99
F0.04
tp128
a(F13.209621906280518
F-0.06
F-1.0
F0.11
tp129
a(F13.29456901550293
F-0.06
F-0.99
F0.13
tp130
a(F13.404424905776978
F-0.03
F-1.0
F0.08
tp131
a(F13.507052898406982
F-0.0
F-1.02
F-0.02
tp132
a(F13.598245859146118
F0.02
F-1.01
F-0.11
tp133
a(F13.707685947418213
F0.05
F-0.96
F-0.24
tp134
a(F13.824562072753906
F0.07
F-0.88
F-0.4
tp135
a(F13.911931991577148
F0.12
F-0.79
F-0.55
tp136
a(F14.02806305885315
F0.18
F-0.66
F-0.7
tp137
a(F14.12227988243103
F0.24
F-0.49
F-0.81
tp138
a(F14.212116956710815
F0.29
F-0.34
F-0.91
tp139
a(F14.322057008743286
F0.28
F-0.28
F-0.92
tp140
a(F14.43844199180603
F0.29
F-0.23
F-0.93
tp141
a(F14.523436069488525
F0.3
F-0.23
F-0.94
tp142
a(F14.633417844772339
F0.29
F-0.28
F-0.95
tp143
a(F14.729604959487915
F0.23
F-0.39
F-0.89
tp144
a(F14.848204851150513
F0.18
F-0.52
F-0.79
tp145
a(F14.933377027511597
F0.12
F-0.71
F-0.62
tp146
a(F15.043413877487183
F0.06
F-0.84
F-0.42
tp147
a(F15.129443883895874
F0.01
F-0.96
F-0.2
tp148
a(F15.239806890487671
F-0.01
F-1.0
F-0.07
tp149
a(F15.349506855010986
F-0.02
F-1.01
F0.04
tp150
a(F15.461988925933838
F-0.04
F-1.01
F0.07
tp151
a(F15.547183990478516
F-0.05
F-1.01
F0.08
tp152
a(F15.657197952270508
F-0.04
F-1.04
F0.01
tp153
a(F15.743490934371948
F-0.02
F-1.02
F-0.1
tp154
a(F15.853225946426392
F0.02
F-1.0
F-0.26
tp155
a(F15.963468074798584
F0.12
F-0.87
F-0.5
tp156
a(F16.076974868774414
F0.19
F-0.7
F-0.64
tp157
a(F16.162031888961792
F0.28
F-0.53
F-0.78
tp158
a(F16.27217698097229
F0.34
F-0.33
F-0.9
tp159
a(F16.357166051864624
F0.35
F-0.25
F-0.93
tp160
a(F16.467391967773438
F0.34
F-0.24
F-0.93
tp161
a(F16.577244997024536
F0.34
F-0.26
F-0.92
tp162
a(F16.6860408782959
F0.33
F-0.31
F-0.93
tp163
a(F16.770868062973022
F0.29
F-0.39
F-0.88
tp164
a(F16.88091802597046
F0.23
F-0.52
F-0.8
tp165
a(F16.997062921524048
F0.16
F-0.67
F-0.66
tp166
a(F17.082206964492798
F0.12
F-0.8
F-0.5
tp167
a(F17.192030906677246
F0.07
F-0.93
F-0.29
tp168
a(F17.278625965118408
F0.03
F-0.97
F-0.12
tp169
a(F17.3807270526886
F-0.01
F-0.99
F-0.01
tp170
a(F17.490931034088135
F-0.02
F-1.01
F0.04
tp171
a(F17.600940942764282
F-0.02
F-1.03
F0.05
tp172
a(F17.689807891845703
F-0.02
F-1.02
F0.03
tp173
a(F17.799675941467285
F-0.01
F-1.03
F0.0
tp174
a(F17.91585087776184
F-0.0
F-1.03
F-0.06
tp175
a(F17.997179985046387
F0.03
F-0.96
F-0.2
tp176
a(F18.107154846191406
F0.12
F-0.9
F-0.41
tp177
a(F18.223222970962524
F0.21
F-0.72
F-0.61
tp178
a(F18.30838394165039
F0.28
F-0.53
F-0.76
tp179
a(F18.41834807395935
F0.29
F-0.4
F-0.82
tp180
a(F18.508434057235718
F0.3
F-0.31
F-0.87
tp181
a(F18.608455896377563
F0.31
F-0.27
F-0.89
tp182
a(F18.71847105026245
F0.34
F-0.24
F-0.92
tp183
a(F18.828194856643677
F0.34
F-0.28
F-0.94
tp184
a(F18.915987968444824
F0.26
F-0.38
F-0.89
tp185
a(F19.025909900665283
F0.17
F-0.47
F-0.86
tp186
a(F19.135989904403687
F0.08
F-0.57
F-0.82
tp187
a(F19.24725890159607
F-0.05
F-0.64
F-0.68
tp188
a(F19.33212685585022
F-0.18
F-0.77
F-0.45
tp189
a(F19.442142963409424
F-0.28
F-0.87
F-0.25
tp190
a(F19.543642044067383
F-0.37
F-0.85
F-0.08
tp191
a(F19.63484001159668
F-0.41
F-0.83
F-0.05
tp192
a(F19.744871854782104
F-0.43
F-0.84
F-0.03
tp193
a(F19.860997915267944
F-0.43
F-0.85
F-0.04
tp194
a(F19.947388887405396
F-0.41
F-0.89
F-0.07
tp195
a(F20.057312965393066
F-0.39
F-0.9
F-0.11
tp196
a(F20.14354705810547
F-0.29
F-0.82
F-0.31
tp197
a(F20.269919872283936
F-0.18
F-0.79
F-0.49
tp198
a(F20.354763984680176
F-0.09
F-0.74
F-0.6
tp199
a(F20.464829921722412
F0.03
F-0.58
F-0.75
tp200
a(F20.561060905456543
F0.13
F-0.45
F-0.84
tp201
a(F20.671064853668213
F0.2
F-0.38
F-0.89
tp202
a(F20.757266998291016
F0.28
F-0.28
F-0.96
tp203
a(F20.866934061050415
F0.29
F-0.25
F-0.95
tp204
a(F20.977038860321045
F0.29
F-0.27
F-0.94
tp205
a(F21.067028045654297
F0.28
F-0.31
F-0.92
tp206
a(F21.1840238571167
F0.28
F-0.37
F-0.92
tp207
a(F21.269387006759644
F0.25
F-0.47
F-0.87
tp208
a(F21.379584074020386
F0.19
F-0.59
F-0.79
tp209
a(F21.489289045333862
F0.11
F-0.72
F-0.6
tp210
a(F21.57580804824829
F0.07
F-0.86
F-0.41
tp211
a(F21.685792922973633
F0.05
F-0.98
F-0.2
tp212
a(F21.795641899108887
F0.04
F-1.0
F-0.09
tp213
a(F21.88205599784851
F0.02
F-1.01
F0.01
tp214
a(F21.992066860198975
F0.01
F-1.02
F0.05
tp215
a(F22.10189700126648
F0.04
F-1.03
F0.03
tp216
a(F22.19205904006958
F0.04
F-1.04
F-0.03
tp217
a(F22.301934957504272
F0.05
F-1.03
F-0.12
tp218
a(F22.418500900268555
F0.12
F-0.96
F-0.3
tp219
a(F22.523290872573853
F0.19
F-0.85
F-0.46
tp220
a(F22.60834288597107
F0.24
F-0.76
F-0.57
tp221
a(F22.724720001220703
F0.33
F-0.62
F-0.71
tp222
a(F22.809505939483643
F0.39
F-0.47
F-0.81
tp223
a(F22.91967797279358
F0.39
F-0.4
F-0.85
tp224
a(F23.008255004882812
F0.4
F-0.34
F-0.88
tp225
a(F23.11455488204956
F0.39
F-0.35
F-0.88
tp226
a(F23.214740991592407
F0.37
F-0.41
F-0.86
tp227
a(F23.324673891067505
F0.36
F-0.47
F-0.85
tp228
a(F23.440924882888794
F0.31
F-0.61
F-0.75
tp229
a(F23.52593493461609
F0.27
F-0.71
F-0.67
tp230
a(F23.636005878448486
F0.21
F-0.82
F-0.51
tp231
a(F23.753188848495483
F0.16
F-0.95
F-0.31
tp232
a(F23.83827495574951
F0.13
F-1.0
F-0.17
tp233
a(F23.954726934432983
F0.12
F-1.01
F-0.06
tp234
a(F24.039680004119873
F0.1
F-1.02
F0.0
tp235
a(F24.15004801750183
F0.09
F-1.02
F0.03
tp236
a(F24.23624086380005
F0.09
F-1.03
F0.04
tp237
a(F24.345706939697266
F0.09
F-1.03
F0.04
tp238
a(F24.444783926010132
F0.08
F-1.05
F0.02
tp239
a(F24.55471897125244
F0.08
F-1.05
F-0.08
tp240
a(F24.67093586921692
F0.09
F-1.0
F-0.21
tp241
a(F24.755959033966064
F0.16
F-0.83
F-0.44
tp242
a(F24.86595106124878
F0.23
F-0.7
F-0.62
tp243
a(F24.952189922332764
F0.28
F-0.57
F-0.76
tp244
a(F25.060904026031494
F0.31
F-0.47
F-0.82
tp245
a(F25.170897960662842
F0.3
F-0.4
F-0.84
tp246
a(F25.261107921600342
F0.31
F-0.37
F-0.87
tp247
a(F25.371006965637207
F0.32
F-0.38
F-0.89
tp248
a(F25.487212896347046
F0.31
F-0.42
F-0.89
tp249
a(F25.572277069091797
F0.29
F-0.49
F-0.84
tp250
a(F25.674495935440063
F0.26
F-0.58
F-0.78
tp251
a(F25.784543991088867
F0.23
F-0.69
F-0.71
tp252
a(F25.874918937683105
F0.19
F-0.79
F-0.6
tp253
a(F25.98487687110901
F0.14
F-0.86
F-0.47
tp254
a(F26.100961923599243
F0.1
F-0.93
F-0.33
tp255
a(F26.18573784828186
F0.07
F-0.98
F-0.22
tp256
a(F26.314602851867676
F0.05
F-1.01
F-0.15
tp257
a(F26.399810075759888
F0.03
F-1.01
F-0.1
tp258
a(F26.48850393295288
F0.03
F-1.02
F-0.07
tp259
a(F26.598546981811523
F0.03
F-1.03
F-0.09
tp260
a(F26.70959186553955
F0.03
F-1.01
F-0.15
tp261
a(F26.802320957183838
F0.06
F-0.99
F-0.28
tp262
a(F26.912247896194458
F0.1
F-0.93
F-0.43
tp263
a(F27.004651069641113
F0.13
F-0.82
F-0.56
tp264
a(F27.114773988723755
F0.22
F-0.63
F-0.74
tp265
a(F27.204782009124756
F0.27
F-0.47
F-0.83
tp266
a(F27.314859867095947
F0.29
F-0.37
F-0.88
tp267
a(F27.43107795715332
F0.27
F-0.31
F-0.9
tp268
a(F27.515944004058838
F0.28
F-0.27
F-0.91
tp269
a(F27.638444900512695
F0.3
F-0.28
F-0.92
tp270
a(F27.723358869552612
F0.3
F-0.32
F-0.93
tp271
a(F27.83358097076416
F0.29
F-0.37
F-0.92
tp272
a(F27.927227020263672
F0.25
F-0.49
F-0.85
tp273
a(F28.037221908569336
F0.19
F-0.63
F-0.74
tp274
a(F28.123586893081665
F0.13
F-0.75
F-0.58
tp275
a(F28.25085186958313
F0.08
F-0.85
F-0.41
tp276
a(F28.336061000823975
F0.05
F-0.95
F-0.27
tp277
a(F28.446059942245483
F0.04
F-1.0
F-0.16
tp278
a(F28.534844875335693
F0.02
F-1.02
F-0.08
tp279
a(F28.644646883010864
F0.0
F-1.03
F-0.06
tp280
a(F28.754905939102173
F0.0
F-1.04
F-0.05
tp281
a(F28.851062059402466
F0.0
F-1.05
F-0.05
tp282
a(F28.9509379863739
F0.0
F-1.01
F-0.15
tp283
a(F29.060992002487183
F0.06
F-0.94
F-0.31
tp284
a(F29.146147966384888
F0.13
F-0.83
F-0.48
tp285
a(F29.255945920944214
F0.21
F-0.69
F-0.65
tp286
a(F29.36733102798462
F0.28
F-0.51
F-0.79
tp287
a(F29.456089973449707
F0.3
F-0.4
F-0.85
tp288
a(F29.57232093811035
F0.3
F-0.32
F-0.88
tp289
a(F29.663619995117188
F0.3
F-0.28
F-0.9
tp290
a(F29.77359890937805
F0.32
F-0.25
F-0.92
tp291
a(F29.889838933944702
F0.33
F-0.23
F-0.93
tp292
a(F29.974812030792236
F0.32
F-0.3
F-0.93
tp293
a.