(dp0
S'count'
p1
I8
sS'raw'
p2
(lp3
(dp4
S'magnet'
p5
(I0
I0
I0
tp6
sS'gyro'
p7
(I0
I0
I0
tp8
sS'accel'
p9
(I0
I0
I0
tp10
sS'time'
p11
F1397215684.42
sa(dp12
S'magnet'
p13
(F496.8
F77.28
F-205.16
tp14
sS'gyro'
p15
(I350
I395
I315
tp16
sS'accel'
p17
(F-0.04
F0.94
F0.06
tp18
sg11
F1397215684.42
sa(dp19
S'magnet'
p20
(F490.36
F77.28
F-202.4
tp21
sS'gyro'
p22
(I34
I734
I344
tp23
sS'accel'
p24
(F-0.02
F0.94
F0.05
tp25
sg11
F1397215684.43
sa(dp26
S'magnet'
p27
(F487.6
F75.44
F-201.48
tp28
sS'gyro'
p29
(I33
I348
I-63
tp30
sS'accel'
p31
(F-0.03
F0.95
F0.05
tp32
sg11
F1397215684.55
sa(dp33
S'magnet'
p34
(F492.2
F76.36
F-202.4
tp35
sS'gyro'
p36
(I70
I39
I-86
tp37
sS'accel'
p38
(F-0.03
F0.94
F0.05
tp39
sg11
F1397215684.66
sa(dp40
S'magnet'
p41
(F489.44
F76.36
F-200.56
tp42
sS'gyro'
p43
(I36
I98
I293
tp44
sS'accel'
p45
(F-0.03
F0.94
F0.04
tp46
sg11
F1397215684.79
sa(dp47
S'magnet'
p48
(F489.44
F74.52
F-195.04
tp49
sS'gyro'
p50
(I499
I224
I197
tp51
sS'accel'
p52
(F-0.03
F0.97
F0.04
tp53
sg11
F1397215684.91
sa(dp54
S'magnet'
p55
(F484.84
F74.52
F-195.96
tp56
sS'gyro'
p57
(I-1991
I680
I-1441
tp58
sS'accel'
p59
(F-0.04
F1.14
F0.04
tp60
sg11
F1397215685.03
sa(dp61
S'magnet'
p62
(F490.36
F79.12
F-198.72
tp63
sS'gyro'
p64
(I-2954
I1532
I-2911
tp65
sS'accel'
p66
(F-0.15
F1.23
F0.02
tp67
sg11
F1397215685.15
sa(dp68
S'magnet'
p69
(F496.8
F79.12
F-202.4
tp70
sS'gyro'
p71
(I212
I-1388
I-177
tp72
sS'accel'
p73
(F-0.13
F1.18
F0.05
tp74
sg11
F1397215685.27
sa(dp75
S'magnet'
p76
(F485.76
F74.52
F-177.56
tp77
sS'gyro'
p78
(I1754
I-7275
I2064
tp79
sS'accel'
p80
(F-0.04
F0.96
F-0.06
tp81
sg11
F1397215685.38
sa(dp82
S'magnet'
p83
(F459.08
F62.56
F-173.88
tp84
sS'gyro'
p85
(I3298
I108
I3815
tp86
sS'accel'
p87
(F0.04
F0.64
F-0.05
tp88
sg11
F1397215685.51
sa(dp89
S'magnet'
p90
(F445.28
F57.04
F-159.16
tp91
sS'gyro'
p92
(I-639
I-69
I-1469
tp93
sS'accel'
p94
(F0.08
F0.56
F-0.07
tp95
sg11
F1397215685.62
sa(dp96
S'magnet'
p97
(F456.32
F58.88
F-172.96
tp98
sS'gyro'
p99
(I-3039
I1732
I-3789
tp100
sS'accel'
p101
(F0.08
F0.53
F0.01
tp102
sg11
F1397215685.74
sa(dp103
S'magnet'
p104
(F483.92
F74.52
F-186.76
tp105
sS'gyro'
p106
(I-1951
I3970
I-4747
tp107
sS'accel'
p108
(F0.06
F0.61
F-0.03
tp109
sg11
F1397215685.87
sa(dp110
S'magnet'
p111
(F506.0
F92.92
F-182.16
tp112
sS'gyro'
p113
(I90
I3716
I-944
tp114
sS'accel'
p115
(F0.03
F0.79
F-0.02
tp116
sg11
F1397215685.99
sa(dp117
S'magnet'
p118
(F500.48
F92.0
F-167.44
tp119
sS'gyro'
p120
(I1017
I1776
I2655
tp121
sS'accel'
p122
(F-0.07
F0.91
F-0.04
tp123
sg11
F1397215686.11
sa(dp124
S'magnet'
p125
(F462.76
F70.84
F-148.12
tp126
sS'gyro'
p127
(I1842
I2853
I4771
tp128
sS'accel'
p129
(F-0.06
F1.1
F-0.01
tp130
sg11
F1397215686.23
sa(dp131
S'magnet'
p132
(F444.36
F62.56
F-136.16
tp133
sS'gyro'
p134
(I260
I755
I364
tp135
sS'accel'
p136
(F-0.03
F1.25
F0.01
tp137
sg11
F1397215686.38
sa(dp138
S'magnet'
p139
(F440.68
F65.32
F-131.56
tp140
sS'gyro'
p141
(I-2669
I424
I-2008
tp142
sS'accel'
p143
(F-0.02
F1.21
F0.04
tp144
sg11
F1397215686.49
sa(dp145
S'magnet'
p146
(F457.24
F-5407.76
F-234.6
tp147
sS'gyro'
p148
(I-3754
I1667
I-2805
tp149
sS'accel'
p150
(F-0.06
F1.22
F0.04
tp151
sg11
F1397215686.61
sa(dp152
S'magnet'
p153
(F482.08
F77.28
F-179.4
tp154
sS'gyro'
p155
(I-3498
I1705
I-2761
tp156
sS'accel'
p157
(F-0.02
F1.16
F0.08
tp158
sg11
F1397215686.72
sa(dp159
S'magnet'
p160
(F502.32
F88.32
F-194.12
tp161
sS'gyro'
p162
(I936
I592
I-934
tp163
sS'accel'
p164
(F-0.09
F1.09
F0.1
tp165
sg11
F1397215686.86
sa(dp166
S'magnet'
p167
(F494.96
F82.8
F-190.44
tp168
sS'gyro'
p169
(I3252
I166
I3083
tp170
sS'accel'
p171
(F-0.08
F0.95
F0.09
tp172
sg11
F1397215686.97
sa(dp173
S'magnet'
p174
(F489.44
F77.28
F-186.76
tp175
sS'gyro'
p176
(I3500
I2237
I3820
tp177
sS'accel'
p178
(F0.02
F0.64
F0.03
tp179
sg11
F1397215687.11
sa(dp180
S'magnet'
p181
(F451.72
F62.56
F-149.04
tp182
sS'gyro'
p183
(I468
I-4972
I-1616
tp184
sS'accel'
p185
(F0.04
F0.59
F0.06
tp186
sg11
F1397215687.21
sa(dp187
S'magnet'
p188
(F471.96
F70.84
F-157.32
tp189
sS'gyro'
p190
(I-1232
I-1200
I-2087
tp191
sS'accel'
p192
(F-0.05
F0.53
F0.09
tp193
sg11
F1397215687.35
sa(dp194
S'magnet'
p195
(F491.28
F84.64
F-156.4
tp196
sS'gyro'
p197
(I-382
I-1299
I-1292
tp198
sS'accel'
p199
(F-0.08
F0.58
F0.02
tp200
sg11
F1397215687.47
sa(dp201
S'magnet'
p202
(F490.36
F90.16
F-146.28
tp203
sS'gyro'
p204
(I-69
I-1650
I-123
tp205
sS'accel'
p206
(F-0.03
F0.85
F-0.02
tp207
sg11
F1397215687.59
sa(dp208
S'magnet'
p209
(F478.4
F85.56
F-139.84
tp210
sS'gyro'
p211
(I989
I1715
I3562
tp212
sS'accel'
p213
(F-0.04
F0.92
F0.02
tp214
sg11
F1397215687.71
sa(dp215
S'magnet'
p216
(F463.68
F80.04
F-132.48
tp217
sS'gyro'
p218
(I2986
I4648
I6361
tp219
sS'accel'
p220
(F0.02
F1.08
F0.01
tp221
sg11
F1397215687.82
sa(dp222
S'magnet'
p223
(F415.84
F54.28
F-110.4
tp224
sS'gyro'
p225
(I-337
I2291
I3130
tp226
sS'accel'
p227
(F0.08
F1.35
F0.05
tp228
sg11
F1397215687.94
sa(dp229
S'magnet'
p230
(F407.56
F53.36
F-115.0
tp231
sS'gyro'
p232
(I-1404
I3036
I-3134
tp233
sS'accel'
p234
(F0.04
F1.27
F0.09
tp235
sg11
F1397215688.08
sa(dp236
S'magnet'
p237
(F429.64
F62.56
F-116.84
tp238
sS'gyro'
p239
(I-1189
I2704
I-3303
tp240
sS'accel'
p241
(F0.01
F1.22
F0.08
tp242
sg11
F1397215688.19
sa(dp243
S'magnet'
p244
(F463.68
F77.28
F-140.76
tp245
sS'gyro'
p246
(I-1997
I-4431
I-3291
tp247
sS'accel'
p248
(F-0.01
F1.17
F0.08
tp249
sg11
F1397215688.34
sa(dp250
S'magnet'
p251
(F482.08
F82.8
F-151.8
tp252
sS'gyro'
p253
(I1821
I1764
I-676
tp254
sS'accel'
p255
(F-0.02
F1.1
F0.05
tp256
sg11
F1397215688.46
sa(dp257
S'magnet'
p258
(F482.08
F89.24
F-141.68
tp259
sS'gyro'
p260
(I1517
I-5440
I1177
tp261
sS'accel'
p262
(F-0.06
F1.0
F-0.01
tp263
sg11
F1397215688.58
sa(dp264
S'magnet'
p265
(F480.24
F80.96
F-156.4
tp266
sS'gyro'
p267
(I1246
I7
I4061
tp268
sS'accel'
p269
(F-0.08
F0.81
F0.01
tp270
sg11
F1397215688.68
sa(dp271
S'magnet'
p272
(F442.52
F62.56
F-129.72
tp273
sS'gyro'
p274
(I4568
I-3253
I3388
tp275
sS'accel'
p276
(F0.04
F0.65
F-0.07
tp277
sg11
F1397215688.81
sa(dp278
S'magnet'
p279
(F445.28
F64.4
F-132.48
tp280
sS'gyro'
p281
(I93
I1992
I-1778
tp282
sS'accel'
p283
(F0.06
F0.66
F-0.03
tp284
sg11
F1397215688.93
sa(dp285
S'magnet'
p286
(F471.96
F79.12
F-135.24
tp287
sS'gyro'
p288
(I-855
I-1865
I-3746
tp289
sS'accel'
p290
(F0.02
F0.64
F-0.04
tp291
sg11
F1397215689.04
sa(dp292
S'magnet'
p293
(F474.72
F83.72
F-131.56
tp294
sS'gyro'
p295
(I-1682
I2924
I-146
tp296
sS'accel'
p297
(F0.05
F0.65
F0.04
tp298
sg11
F1397215689.18
sa(dp299
S'magnet'
p300
(F472.88
F84.64
F-132.48
tp301
sS'gyro'
p302
(I-608
I2130
I677
tp303
sS'accel'
p304
(F0.06
F0.82
F0.07
tp305
sg11
F1397215689.31
sa(dp306
S'magnet'
p307
(F459.08
F79.12
F-116.84
tp308
sS'gyro'
p309
(I2781
I3414
I2832
tp310
sS'accel'
p311
(F0.04
F0.93
F0.01
tp312
sg11
F1397215689.43
sa(dp313
S'magnet'
p314
(F413.08
F64.4
F-86.48
tp315
sS'gyro'
p316
(I4535
I724
I5563
tp317
sS'accel'
p318
(F0.11
F1.13
F-0.13
tp319
sg11
F1397215689.56
sa(dp320
S'magnet'
p321
(F376.28
F58.88
F-69.92
tp322
sS'gyro'
p323
(I2430
I-1716
I1089
tp324
sS'accel'
p325
(F0.13
F1.28
F-0.13
tp326
sg11
F1397215689.68
sa(dp327
S'magnet'
p328
(F382.72
F57.04
F-70.84
tp329
sS'gyro'
p330
(I-720
I904
I-1885
tp331
sS'accel'
p332
(F0.13
F1.13
F-0.11
tp333
sg11
F1397215689.8
sa(dp334
S'magnet'
p335
(F401.12
F66.24
F-74.52
tp336
sS'gyro'
p337
(I-861
I-499
I-2585
tp338
sS'accel'
p339
(F0.15
F1.14
F-0.12
tp340
sg11
F1397215689.92
sa(dp341
S'magnet'
p342
(F437.0
F78.2
F-93.84
tp343
sS'gyro'
p344
(I-2107
I-2887
I-4745
tp345
sS'accel'
p346
(F0.03
F1.19
F-0.14
tp347
sg11
F1397215690.05
sa(dp348
S'magnet'
p349
(F471.96
F87.4
F-125.12
tp350
sS'gyro'
p351
(I-871
I-2277
I-1070
tp352
sS'accel'
p353
(F0.04
F1.11
F-0.12
tp354
sg11
F1397215690.16
sa(dp355
S'magnet'
p356
(F485.76
F88.32
F-143.52
tp357
sS'gyro'
p358
(I-533
I-666
I760
tp359
sS'accel'
p360
(F-0.0
F1.04
F-0.15
tp361
sg11
F1397215690.28
sa(dp362
S'magnet'
p363
(F460.92
F73.6
F-135.24
tp364
sS'gyro'
p365
(I-654
I1584
I3804
tp366
sS'accel'
p367
(F-0.0
F0.89
F-0.14
tp368
sg11
F1397215690.39
sa(dp369
S'magnet'
p370
(F436.08
F58.88
F-129.72
tp371
sS'gyro'
p372
(I2578
I76
I4816
tp373
sS'accel'
p374
(F0.08
F0.67
F-0.03
tp375
sg11
F1397215690.51
sa(dp376
S'magnet'
p377
(F408.48
F53.36
F-111.32
tp378
sS'gyro'
p379
(I-894
I-3059
I-485
tp380
sS'accel'
p381
(F0.11
F0.64
F-0.08
tp382
sg11
F1397215690.64
sa(dp383
S'magnet'
p384
(F427.8
F53.36
F-128.8
tp385
sS'gyro'
p386
(I-661
I-190
I-2722
tp387
sS'accel'
p388
(F0.02
F0.73
F0.04
tp389
sg11
F1397215690.76
sa(dp390
S'magnet'
p391
(F448.04
F68.08
F-120.52
tp392
sS'gyro'
p393
(I2096
I143
I-3965
tp394
sS'accel'
p395
(F0.02
F0.64
F-0.04
tp396
sg11
F1397215690.88
sa(dp397
S'magnet'
p398
(F236.44
F-20961.28
F-5407.76
tp399
sS'gyro'
p400
(I2407
I4254
I-3094
tp401
sS'accel'
p402
(F-0.04
F0.63
F-0.15
tp403
sg11
F1397215691.02
sa(dp404
S'magnet'
p405
(F470.12
F92.0
F-103.96
tp406
sS'gyro'
p407
(I-45
I-4359
I-1428
tp408
sS'accel'
p409
(F0.01
F0.76
F-0.22
tp410
sg11
F1397215691.13
sa(dp411
S'magnet'
p412
(F471.96
F94.76
F-111.32
tp413
sS'gyro'
p414
(I-1831
I1698
I3824
tp415
sS'accel'
p416
(F-0.02
F0.89
F-0.16
tp417
sg11
F1397215691.27
sa(dp418
S'magnet'
p419
(F428.72
F76.36
F-92.92
tp420
sS'gyro'
p421
(I260
I2273
I7050
tp422
sS'accel'
p423
(F0.11
F1.11
F-0.18
tp424
sg11
F1397215691.38
sa(dp425
S'magnet'
p426
(F368.0
F42.32
F-89.24
tp427
sS'gyro'
p428
(I27
I-107
I1049
tp429
sS'accel'
p430
(F0.17
F1.28
F-0.08
tp431
sg11
F1397215691.5
sa(dp432
S'magnet'
p433
(F380.88
F46.0
F-87.4
tp434
sS'gyro'
p435
(I572
I448
I-2219
tp436
sS'accel'
p437
(F0.12
F1.1
F-0.04
tp438
sg11
F1397215691.61
sa(dp439
S'magnet'
p440
(F391.0
F59.8
F-76.36
tp441
sS'gyro'
p442
(I998
I239
I-1307
tp443
sS'accel'
p444
(F0.15
F1.07
F-0.11
tp445
sg11
F1397215691.73
sa(dp446
S'magnet'
p447
(F398.36
F66.24
F-71.76
tp448
sS'gyro'
p449
(I-4042
I3722
I-3783
tp450
sS'accel'
p451
(F0.08
F1.2
F-0.13
tp452
sg11
F1397215691.87
sa(dp453
S'magnet'
p454
(F426.88
F74.52
F-89.24
tp455
sS'gyro'
p456
(I-2677
I817
I-4473
tp457
sS'accel'
p458
(F0.04
F1.19
F-0.1
tp459
sg11
F1397215691.99
sa(dp460
S'magnet'
p461
(F459.08
F83.72
F-104.88
tp462
sS'gyro'
p463
(I320
I3395
I-860
tp464
sS'accel'
p465
(F-0.01
F1.12
F-0.03
tp466
sg11
F1397215692.1
sa(dp467
S'magnet'
p468
(F453.56
F85.56
F-97.52
tp469
sS'gyro'
p470
(I1464
I-5838
I1835
tp471
sS'accel'
p472
(F-0.01
F0.97
F-0.09
tp473
sg11
F1397215692.22
sa(dp474
S'magnet'
p475
(F444.36
F69.0
F-111.32
tp476
sS'gyro'
p477
(I3046
I-3686
I4884
tp478
sS'accel'
p479
(F0.01
F0.73
F-0.12
tp480
sg11
F1397215692.36
sa(dp481
S'magnet'
p482
(F425.96
F67.16
F-103.04
tp483
sS'gyro'
p484
(I2596
I-5096
I1003
tp485
sS'accel'
p486
(F0.08
F0.57
F-0.26
tp487
sg11
F1397215692.48
sa(dp488
S'magnet'
p489
(F431.48
F61.64
F-107.64
tp490
sS'gyro'
p491
(I-3085
I1745
I-1845
tp492
sS'accel'
p493
(F-0.01
F0.65
F-0.09
tp494
sg11
F1397215692.61
sa(dp495
S'magnet'
p496
(F-20961.28
F-14602.24
F296.24
tp497
sS'gyro'
p498
(I-1222
I6229
I-1531
tp499
sS'accel'
p500
(F-0.0
F0.66
F-0.1
tp501
sg11
F1397215692.72
sa(dp502
S'magnet'
p503
(F464.6
F79.12
F-131.56
tp504
sS'gyro'
p505
(I-2046
I4908
I-1882
tp506
sS'accel'
p507
(F-0.01
F0.71
F0.02
tp508
sg11
F1397215692.87
sa(dp509
S'magnet'
p510
(F451.72
F75.44
F-117.76
tp511
sS'gyro'
p512
(I868
I4413
I550
tp513
sS'accel'
p514
(F0.04
F0.82
F0.01
tp515
sg11
F1397215692.99
sa(dp516
S'magnet'
p517
(F435.16
F73.6
F-102.12
tp518
sS'gyro'
p519
(I4068
I1052
I2936
tp520
sS'accel'
p521
(F-0.01
F0.96
F-0.0
tp522
sg11
F1397215693.11
sa(dp523
S'magnet'
p524
(F392.84
F52.44
F-90.16
tp525
sS'gyro'
p526
(I625
I4418
I5392
tp527
sS'accel'
p528
(F0.07
F1.21
F0.03
tp529
sg11
F1397215693.22
sa(dp530
S'magnet'
p531
(F382.72
F50.6
F-87.4
tp532
sS'gyro'
p533
(I771
I-242
I-1224
tp534
sS'accel'
p535
(F0.05
F1.23
F-0.06
tp536
sg11
F1397215693.34
sa(dp537
S'magnet'
p538
(F396.52
F57.04
F-91.08
tp539
sS'gyro'
p540
(I383
I-147
I-1430
tp541
sS'accel'
p542
(F0.07
F1.09
F0.01
tp543
sg11
F1397215693.45
sa(dp544
S'magnet'
p545
(F405.72
F61.64
F-86.48
tp546
sS'gyro'
p547
(I-768
I315
I-2164
tp548
sS'accel'
p549
(F0.06
F1.15
F-0.07
tp550
sg11
F1397215693.57
sa(dp551
S'magnet'
p552
(F427.8
F71.76
F-98.44
tp553
sS'gyro'
p554
(I-1327
I220
I-3760
tp555
sS'accel'
p556
(F0.05
F1.19
F-0.04
tp557
sg11
F1397215693.69
sa(dp558
S'magnet'
p559
(F447.12
F86.48
F-105.8
tp560
sS'gyro'
p561
(I-127
I50
I-2627
tp562
sS'accel'
p563
(F-0.04
F1.13
F-0.03
tp564
sg11
F1397215693.84
sa(dp565
S'magnet'
p566
(F465.52
F87.4
F-106.72
tp567
sS'gyro'
p568
(I-477
I-4212
I-538
tp569
sS'accel'
p570
(F0.01
F1.04
F-0.11
tp571
sg11
F1397215693.95
sa(dp572
S'magnet'
p573
(F476.56
F85.56
F-123.28
tp574
sS'gyro'
p575
(I396
I-3249
I2467
tp576
sS'accel'
p577
(F0.01
F0.89
F-0.13
tp578
sg11
F1397215694.06
sa(dp579
S'magnet'
p580
(F457.24
F74.52
F-124.2
tp581
sS'gyro'
p582
(I3268
I-2121
I3711
tp583
sS'accel'
p584
(F0.04
F0.71
F-0.1
tp585
sg11
F1397215694.18
sa(dp586
S'magnet'
p587
(F437.92
F62.56
F-109.48
tp588
sS'gyro'
p589
(I-716
I-1411
I562
tp590
sS'accel'
p591
(F0.08
F0.69
F-0.13
tp592
sg11
F1397215694.32
sa(dp593
S'magnet'
p594
(F438.84
F67.16
F-117.76
tp595
sS'gyro'
p596
(I-910
I1440
I-2423
tp597
sS'accel'
p598
(F0.04
F0.75
F-0.01
tp599
sg11
F1397215694.44
sa(dp600
S'magnet'
p601
(F453.56
F77.28
F-115.0
tp602
sS'gyro'
p603
(I694
I-1303
I-3386
tp604
sS'accel'
p605
(F0.01
F0.71
F-0.05
tp606
sg11
F1397215694.56
sa(dp607
S'magnet'
p608
(F472.88
F91.08
F-112.24
tp609
sS'gyro'
p610
(I205
I7013
I-935
tp611
sS'accel'
p612
(F-0.02
F0.68
F-0.05
tp613
sg11
F1397215694.68
sa(dp614
S'magnet'
p615
(F457.24
F100.28
F-76.36
tp616
sS'gyro'
p617
(I1925
I2028
I-427
tp618
sS'accel'
p619
(F0.02
F0.74
F-0.11
tp620
sg11
F1397215694.79
sa(dp621
S'magnet'
p622
(F447.12
F97.52
F-67.16
tp623
sS'gyro'
p624
(I560
I3277
I5277
tp625
sS'accel'
p626
(F-0.03
F0.85
F-0.01
tp627
sg11
F1397215694.91
sa(dp628
S'magnet'
p629
(F354.2
F69.0
F-36.8
tp630
sS'gyro'
p631
(I2803
I6840
I8941
tp632
sS'accel'
p633
(F0.1
F1.11
F-0.09
tp634
sg11
F1397215695.04
sa(dp635
S'magnet'
p636
(F310.04
F62.56
F-5.52
tp637
sS'gyro'
p638
(I2016
I1065
I2465
tp639
sS'accel'
p640
(F0.28
F1.29
F-0.22
tp641
sg11
F1397215695.15
sa(dp642
S'magnet'
p643
(F289.8
F65.32
F-9.2
tp644
sS'gyro'
p645
(I1287
I-2537
I-5513
tp646
sS'accel'
p647
(F0.25
F1.11
F-0.22
tp648
sg11
F1397215695.29
sa(dp649
S'magnet'
p650
(F334.88
F81.88
F-5.52
tp651
sS'gyro'
p652
(I34
I-178
I-1042
tp653
sS'accel'
p654
(F0.2
F0.96
F-0.22
tp655
sg11
F1397215695.41
sa(dp656
S'magnet'
p657
(F331.2
F78.2
F-8.28
tp658
sS'gyro'
p659
(I-828
I-592
I-391
tp660
sS'accel'
p661
(F0.19
F0.94
F-0.21
tp662
sg11
F1397215695.52
sa(dp663
S'magnet'
p664
(F338.56
F75.44
F-12.88
tp665
sS'gyro'
p666
(I-167
I-317
I-625
tp667
sS'accel'
p668
(F0.18
F0.92
F-0.19
tp669
sg11
F1397215695.64
sa(dp670
S'magnet'
p671
(F345.0
F83.72
F-14.72
tp672
sS'gyro'
p673
(I-956
I318
I485
tp674
sS'accel'
p675
(F0.16
F0.97
F-0.22
tp676
sg11
F1397215695.76
sa(dp677
S'magnet'
p678
(F351.44
F75.44
F-25.76
tp679
sS'gyro'
p680
(I-4137
I163
I-2564
tp681
sS'accel'
p682
(F0.18
F1.04
F-0.23
tp683
sg11
F1397215695.88
sa(dp684
S'magnet'
p685
(F384.56
F69.0
F-55.2
tp686
sS'gyro'
p687
(I-4311
I-2771
I-7103
tp688
sS'accel'
p689
(F0.04
F1.18
F-0.2
tp690
sg11
F1397215696.01
sa(dp691
S'magnet'
p692
(F446.2
F80.96
F-98.44
tp693
sS'gyro'
p694
(I-1166
I-2952
I-4887
tp695
sS'accel'
p696
(F0.05
F1.12
F-0.06
tp697
sg11
F1397215696.13
sa(dp698
S'magnet'
p699
(F481.16
F97.52
F-103.96
tp700
sS'gyro'
p701
(I2568
I-7714
I-1245
tp702
sS'accel'
p703
(F-0.05
F1.0
F-0.09
tp704
sg11
F1397215696.25
sa(dp705
S'magnet'
p706
(F484.84
F88.32
F-133.4
tp707
sS'gyro'
p708
(I1333
I-3066
I4912
tp709
sS'accel'
p710
(F-0.11
F0.83
F-0.03
tp711
sg11
F1397215696.39
sa(dp712
S'magnet'
p713
(F460.0
F73.6
F-124.2
tp714
sS'gyro'
p715
(I4402
I2003
I5949
tp716
sS'accel'
p717
(F0.08
F0.62
F-0.1
tp718
sg11
F1397215696.51
sa(dp719
S'magnet'
p720
(F429.64
F60.72
F-107.64
tp721
sS'gyro'
p722
(I-998
I-2769
I-3034
tp723
sS'accel'
p724
(F0.04
F0.63
F-0.05
tp725
sg11
F1397215696.63
sa(dp726
S'magnet'
p727
(F455.4
F75.44
F-117.76
tp728
sS'gyro'
p729
(I367
I1930
I-2519
tp730
sS'accel'
p731
(F0.01
F0.66
F-0.02
tp732
sg11
F1397215696.75
sa(dp733
S'magnet'
p734
(F472.88
F96.6
F-96.6
tp735
sS'gyro'
p736
(I363
I3004
I-3815
tp737
sS'accel'
p738
(F-0.03
F0.61
F-0.1
tp739
sg11
F1397215696.87
sa(dp740
S'magnet'
p741
(F475.64
F106.72
F-86.48
tp742
sS'gyro'
p743
(I-309
I4029
I57
tp744
sS'accel'
p745
(F-0.05
F0.68
F-0.09
tp746
sg11
F1397215697.0
sa(dp747
S'magnet'
p748
(F414.92
F97.52
F-44.16
tp749
sS'gyro'
p750
(I4111
I5564
I4594
tp751
sS'accel'
p752
(F-0.02
F0.8
F-0.09
tp753
sg11
F1397215697.12
sa(dp754
S'magnet'
p755
(F380.88
F92.0
F-19.32
tp756
sS'gyro'
p757
(I7393
I-2350
I12047
tp758
sS'accel'
p759
(F0.05
F1.05
F-0.14
tp760
sg11
F1397215697.23
sa(dp761
S'magnet'
p762
(F295.32
F98.44
F32.2
tp763
sS'gyro'
p764
(I14935
I-12006
I6304
tp765
sS'accel'
p766
(F0.14
F1.09
F-0.15
tp767
sg11
F1397215697.37
sa(dp768
S'magnet'
p769
(F368.92
F212.52
F96.6
tp770
sS'gyro'
p771
(I20402
I-17035
I-493
tp772
sS'accel'
p773
(F0.18
F0.68
F-0.43
tp774
sg11
F1397215697.49
sa(dp775
S'magnet'
p776
(F471.96
F354.2
F104.88
tp777
sS'gyro'
p778
(I11566
I-5268
I-618
tp779
sS'accel'
p780
(F0.06
F0.49
F-0.8
tp781
sg11
F1397215697.6
sa(dp782
S'magnet'
p783
(F517.04
F451.72
F82.8
tp784
sS'gyro'
p785
(I11189
I-14788
I551
tp786
sS'accel'
p787
(F-0.01
F0.29
F-1.15
tp788
sg11
F1397215697.73
sa(dp789
S'magnet'
p790
(F560.28
F473.8
F47.84
tp791
sS'gyro'
p792
(I3775
I-1856
I207
tp793
sS'accel'
p794
(F-0.1
F0.16
F-1.01
tp795
sg11
F1397215697.84
sa(dp796
S'magnet'
p797
(F563.04
F470.12
F46.0
tp798
sS'gyro'
p799
(I-315
I-186
I1179
tp800
sS'accel'
p801
(F-0.09
F0.14
F-0.99
tp802
sg11
F1397215697.99
sa(dp803
S'magnet'
p804
(F572.24
F460.0
F43.24
tp805
sS'gyro'
p806
(I190
I-150
I-57
tp807
sS'accel'
p808
(F-0.09
F0.12
F-0.97
tp809
sg11
F1397215698.11
sa(dp810
S'magnet'
p811
(F569.48
F463.68
F43.24
tp812
sS'gyro'
p813
(I-51
I9
I-30
tp814
sS'accel'
p815
(F-0.11
F0.11
F-0.96
tp816
sg11
F1397215698.23
sa(dp817
S'magnet'
p818
(F570.4
F460.92
F41.4
tp819
sS'gyro'
p820
(I50
I10
I-12
tp821
sS'accel'
p822
(F-0.13
F0.1
F-0.96
tp823
sg11
F1397215698.31
sa(dp824
S'magnet'
p825
(F569.48
F461.84
F41.4
tp826
sS'gyro'
p827
(I-13
I-20
I-56
tp828
sS'accel'
p829
(F-0.13
F0.1
F-0.96
tp830
sg11
F1397215698.45
sa(dp831
S'magnet'
p832
(F567.64
F460.0
F40.48
tp833
sS'gyro'
p834
(I-56
I-32
I-42
tp835
sS'accel'
p836
(F-0.13
F0.1
F-0.96
tp837
sg11
F1397215698.58
sa(dp838
S'magnet'
p839
(F568.56
F461.84
F40.48
tp840
sS'gyro'
p841
(I-37
I-12
I-28
tp842
sS'accel'
p843
(F-0.14
F0.1
F-0.95
tp844
sg11
F1397215698.71
sa(dp845
S'magnet'
p846
(F569.48
F461.84
F40.48
tp847
sS'gyro'
p848
(I-55
I-29
I-32
tp849
sS'accel'
p850
(F-0.13
F0.1
F-0.96
tp851
sg11
F1397215698.8
sa(dp852
S'magnet'
p853
(F572.24
F461.84
F40.48
tp854
sS'gyro'
p855
(I-6
I-11
I-48
tp856
sS'accel'
p857
(F-0.14
F0.1
F-0.96
tp858
sg11
F1397215698.93
sa(dp859
S'magnet'
p860
(F570.4
F461.84
F41.4
tp861
sS'gyro'
p862
(I-136
I-59
I-36
tp863
sS'accel'
p864
(F-0.14
F0.1
F-0.96
tp865
sg11
F1397215699.05
sa(dp866
S'magnet'
p867
(F566.72
F461.84
F41.4
tp868
sS'gyro'
p869
(I-7
I18
I-40
tp870
sS'accel'
p871
(F-0.13
F0.1
F-0.96
tp872
sg11
F1397215699.16
sa(dp873
S'magnet'
p874
(F570.4
F464.6
F38.64
tp875
sS'gyro'
p876
(I-28
I29
I-43
tp877
sS'accel'
p878
(F-0.13
F0.1
F-0.96
tp879
sg11
F1397215699.28
sa(dp880
S'magnet'
p881
(F572.24
F462.76
F42.32
tp882
sS'gyro'
p883
(I1
I11
I-60
tp884
sS'accel'
p885
(F-0.13
F0.1
F-0.96
tp886
sg11
F1397215699.4
sa(dp887
S'magnet'
p888
(F572.24
F462.76
F44.16
tp889
sS'gyro'
p890
(I-27
I-3
I-36
tp891
sS'accel'
p892
(F-0.14
F0.1
F-0.96
tp893
sg11
F1397215699.51
sa(dp894
S'magnet'
p895
(F568.56
F460.92
F40.48
tp896
sS'gyro'
p897
(I-50
I-25
I-38
tp898
sS'accel'
p899
(F-0.14
F0.1
F-0.95
tp900
sg11
F1397215699.62
sa(dp901
S'magnet'
p902
(F570.4
F460.92
F41.4
tp903
sS'gyro'
p904
(I50
I12
I-61
tp905
sS'accel'
p906
(F-0.14
F0.1
F-0.96
tp907
sg11
F1397215699.76
sa(dp908
S'magnet'
p909
(F569.48
F462.76
F44.16
tp910
sS'gyro'
p911
(I-19
I-34
I-37
tp912
sS'accel'
p913
(F-0.14
F0.1
F-0.95
tp914
sg11
F1397215699.87
sa(dp915
S'magnet'
p916
(F568.56
F460.92
F42.32
tp917
sS'gyro'
p918
(I7
I15
I-35
tp919
sS'accel'
p920
(F-0.14
F0.1
F-0.96
tp921
sg11
F1397215699.99
sa(dp922
S'magnet'
p923
(F567.64
F459.08
F41.4
tp924
sS'gyro'
p925
(I-24
I-23
I-28
tp926
sS'accel'
p927
(F-0.14
F0.1
F-0.96
tp928
sg11
F1397215700.11
sa(dp929
S'magnet'
p930
(F569.48
F460.0
F41.4
tp931
sS'gyro'
p932
(I-50
I-20
I-33
tp933
sS'accel'
p934
(F-0.14
F0.1
F-0.96
tp935
sg11
F1397215700.2
sa(dp936
S'magnet'
p937
(F572.24
F465.52
F41.4
tp938
sS'gyro'
p939
(I-39
I14
I-53
tp940
sS'accel'
p941
(F-0.14
F0.1
F-0.96
tp942
sg11
F1397215700.35
sa(dp943
S'magnet'
p944
(F570.4
F460.0
F41.4
tp945
sS'gyro'
p946
(I-41
I-7
I-46
tp947
sS'accel'
p948
(F-0.14
F0.1
F-0.96
tp949
sg11
F1397215700.46
sa(dp950
S'magnet'
p951
(F568.56
F462.76
F41.4
tp952
sS'gyro'
p953
(I16
I7
I-48
tp954
sS'accel'
p955
(F-0.14
F0.1
F-0.96
tp956
sg11
F1397215700.58
sa(dp957
S'magnet'
p958
(F568.56
F460.92
F41.4
tp959
sS'gyro'
p960
(I-14
I-15
I-50
tp961
sS'accel'
p962
(F-0.14
F0.1
F-0.96
tp963
sg11
F1397215700.7
sa(dp964
S'magnet'
p965
(F568.56
F460.92
F39.56
tp966
sS'gyro'
p967
(I11
I-17
I-25
tp968
sS'accel'
p969
(F-0.14
F0.1
F-0.96
tp970
sg11
F1397215700.8
sa(dp971
S'magnet'
p972
(F569.48
F464.6
F39.56
tp973
sS'gyro'
p974
(I-32
I-35
I-57
tp975
sS'accel'
p976
(F-0.14
F0.1
F-0.96
tp977
sg11
F1397215700.92
sa(dp978
S'magnet'
p979
(F568.56
F460.92
F41.4
tp980
sS'gyro'
p981
(I-58
I-46
I-59
tp982
sS'accel'
p983
(F-0.14
F0.1
F-0.96
tp984
sg11
F1397215701.04
sa(dp985
S'magnet'
p986
(F569.48
F460.0
F43.24
tp987
sS'gyro'
p988
(I-42
I-9
I-51
tp989
sS'accel'
p990
(F-0.13
F0.1
F-0.96
tp991
sg11
F1397215701.16
sa(dp992
S'magnet'
p993
(F569.48
F461.84
F40.48
tp994
sS'gyro'
p995
(I5
I14
I-38
tp996
sS'accel'
p997
(F-0.14
F0.1
F-0.96
tp998
sg11
F1397215701.27
sa(dp999
S'magnet'
p1000
(F567.64
F460.0
F42.32
tp1001
sS'gyro'
p1002
(I6
I-10
I-28
tp1003
sS'accel'
p1004
(F-0.14
F0.1
F-0.96
tp1005
sg11
F1397215701.38
sa(dp1006
S'magnet'
p1007
(F570.4
F462.76
F40.48
tp1008
sS'gyro'
p1009
(I-24
I-7
I-26
tp1010
sS'accel'
p1011
(F-0.14
F0.1
F-0.96
tp1012
sg11
F1397215701.51
sa(dp1013
S'magnet'
p1014
(F572.24
F463.68
F40.48
tp1015
sS'gyro'
p1016
(I4
I-14
I-15
tp1017
sS'accel'
p1018
(F-0.14
F0.1
F-0.96
tp1019
sg11
F1397215701.63
sa(dp1020
S'magnet'
p1021
(F569.48
F460.92
F42.32
tp1022
sS'gyro'
p1023
(I-19
I-13
I-58
tp1024
sS'accel'
p1025
(F-0.14
F0.11
F-0.96
tp1026
sg11
F1397215701.75
sa(dp1027
S'magnet'
p1028
(F569.48
F461.84
F43.24
tp1029
sS'gyro'
p1030
(I16
I6
I-45
tp1031
sS'accel'
p1032
(F-0.14
F0.11
F-0.96
tp1033
sg11
F1397215701.87
sa(dp1034
S'magnet'
p1035
(F570.4
F460.0
F43.24
tp1036
sS'gyro'
p1037
(I-45
I-21
I-19
tp1038
sS'accel'
p1039
(F-0.14
F0.11
F-0.96
tp1040
sg11
F1397215701.99
sa(dp1041
S'magnet'
p1042
(F569.48
F461.84
F43.24
tp1043
sS'gyro'
p1044
(I-31
I47
I-36
tp1045
sS'accel'
p1046
(F-0.14
F0.1
F-0.96
tp1047
sg11
F1397215702.11
sa(dp1048
S'magnet'
p1049
(F571.32
F462.76
F39.56
tp1050
sS'gyro'
p1051
(I-40
I-51
I-41
tp1052
sS'accel'
p1053
(F-0.14
F0.1
F-0.96
tp1054
sg11
F1397215702.22
sa(dp1055
S'magnet'
p1056
(F566.72
F462.76
F39.56
tp1057
sS'gyro'
p1058
(I-25
I-27
I-73
tp1059
sS'accel'
p1060
(F-0.14
F0.1
F-0.96
tp1061
sg11
F1397215702.34
sa(dp1062
S'magnet'
p1063
(F570.4
F461.84
F43.24
tp1064
sS'gyro'
p1065
(I-35
I-16
I-23
tp1066
sS'accel'
p1067
(F-0.14
F0.1
F-0.96
tp1068
sg11
F1397215702.45
sa(dp1069
S'magnet'
p1070
(F569.48
F460.92
F44.16
tp1071
sS'gyro'
p1072
(I-26
I-23
I-40
tp1073
sS'accel'
p1074
(F-0.13
F0.1
F-0.96
tp1075
sg11
F1397215702.57
sa(dp1076
S'magnet'
p1077
(F572.24
F461.84
F40.48
tp1078
sS'gyro'
p1079
(I37
I67
I-45
tp1080
sS'accel'
p1081
(F-0.14
F0.1
F-0.96
tp1082
sg11
F1397215702.74
sa(dp1083
S'magnet'
p1084
(F570.4
F460.92
F40.48
tp1085
sS'gyro'
p1086
(I16
I3
I-61
tp1087
sS'accel'
p1088
(F-0.14
F0.1
F-0.96
tp1089
sg11
F1397215702.8
sa(dp1090
S'magnet'
p1091
(F569.48
F462.76
F41.4
tp1092
sS'gyro'
p1093
(I-12
I-16
I-24
tp1094
sS'accel'
p1095
(F-0.14
F0.1
F-0.96
tp1096
sg11
F1397215702.92
sa(dp1097
S'magnet'
p1098
(F569.48
F461.84
F39.56
tp1099
sS'gyro'
p1100
(I-43
I4
I-47
tp1101
sS'accel'
p1102
(F-0.14
F0.1
F-0.96
tp1103
sg11
F1397215703.03
sa(dp1104
S'magnet'
p1105
(F568.56
F463.68
F38.64
tp1106
sS'gyro'
p1107
(I-32
I0
I-49
tp1108
sS'accel'
p1109
(F-0.14
F0.1
F-0.96
tp1110
sg11
F1397215703.15
sa(dp1111
S'magnet'
p1112
(F568.56
F461.84
F41.4
tp1113
sS'gyro'
p1114
(I-20
I3
I-29
tp1115
sS'accel'
p1116
(F-0.13
F0.1
F-0.96
tp1117
sg11
F1397215703.28
sa(dp1118
S'magnet'
p1119
(F571.32
F459.08
F38.64
tp1120
sS'gyro'
p1121
(I-44
I-11
I-56
tp1122
sS'accel'
p1123
(F-0.14
F0.1
F-0.96
tp1124
sg11
F1397215703.4
sasS'username'
p1125
Vmorgan
p1126
sS'weight'
p1127
V10
p1128
sS'exercise'
p1129
VShoulder
p1130
s.