(dp0
S'count'
p1
I40
sS'raw'
p2
(lp3
(dp4
S'magnet'
p5
(I0
I0
I0
tp6
sS'gyro'
p7
(I0
I0
I0
tp8
sS'accel'
p9
(I0
I0
I0
tp10
sS'time'
p11
F1397235884.41
sa(dp12
S'magnet'
p13
(F-694.6
F268.64
F845.48
tp14
sS'gyro'
p15
(I-92
I-514
I65
tp16
sS'accel'
p17
(F0.22
F-0.16
F-0.92
tp18
sg11
F1397235884.41
sa(dp19
S'magnet'
p20
(F-696.44
F256.68
F841.8
tp21
sS'gyro'
p22
(I-141
I-485
I66
tp23
sS'accel'
p24
(F0.22
F-0.16
F-0.91
tp25
sg11
F1397235884.41
sa(dp26
S'magnet'
p27
(F-696.44
F262.2
F843.64
tp28
sS'gyro'
p29
(I-101
I-501
I67
tp30
sS'accel'
p31
(F0.22
F-0.16
F-0.92
tp32
sg11
F1397235884.47
sa(dp33
S'magnet'
p34
(F-695.52
F260.36
F840.88
tp35
sS'gyro'
p36
(I-99
I-551
I133
tp37
sS'accel'
p38
(F0.22
F-0.16
F-0.92
tp39
sg11
F1397235884.62
sa(dp40
S'magnet'
p41
(F-694.6
F274.16
F843.64
tp42
sS'gyro'
p43
(I-98
I-492
I74
tp44
sS'accel'
p45
(F0.22
F-0.16
F-0.91
tp46
sg11
F1397235884.71
sa(dp47
S'magnet'
p48
(F-698.28
F274.16
F844.56
tp49
sS'gyro'
p50
(I-141
I-489
I119
tp51
sS'accel'
p52
(F0.21
F-0.16
F-0.92
tp53
sg11
F1397235884.85
sa(dp54
S'magnet'
p55
(F-693.68
F261.28
F844.56
tp56
sS'gyro'
p57
(I-143
I-517
I93
tp58
sS'accel'
p59
(F0.21
F-0.16
F-0.92
tp60
sg11
F1397235884.98
sa(dp61
S'magnet'
p62
(F-693.68
F264.96
F844.56
tp63
sS'gyro'
p64
(I159
I-548
I-260
tp65
sS'accel'
p66
(F0.18
F-0.16
F-0.91
tp67
sg11
F1397235885.09
sa(dp68
S'magnet'
p69
(F-693.68
F268.64
F844.56
tp70
sS'gyro'
p71
(I24
I-678
I118
tp72
sS'accel'
p73
(F0.19
F-0.17
F-0.92
tp74
sg11
F1397235885.21
sa(dp75
S'magnet'
p76
(F-696.44
F268.64
F844.56
tp77
sS'gyro'
p78
(I-79
I-497
I93
tp79
sS'accel'
p80
(F0.2
F-0.17
F-0.92
tp81
sg11
F1397235885.32
sa(dp82
S'magnet'
p83
(F-691.84
F263.12
F843.64
tp84
sS'gyro'
p85
(I-136
I-492
I75
tp86
sS'accel'
p87
(F0.21
F-0.17
F-0.92
tp88
sg11
F1397235885.45
sa(dp89
S'magnet'
p90
(F-692.76
F269.56
F849.16
tp91
sS'gyro'
p92
(I-122
I-480
I111
tp93
sS'accel'
p94
(F0.21
F-0.16
F-0.92
tp95
sg11
F1397235885.57
sa(dp96
S'magnet'
p97
(F-695.52
F268.64
F849.16
tp98
sS'gyro'
p99
(I-111
I-495
I71
tp100
sS'accel'
p101
(F0.21
F-0.17
F-0.92
tp102
sg11
F1397235885.7
sa(dp103
S'magnet'
p104
(F-694.6
F261.28
F843.64
tp105
sS'gyro'
p106
(I-118
I-511
I108
tp107
sS'accel'
p108
(F0.21
F-0.17
F-0.91
tp109
sg11
F1397235885.83
sa(dp110
S'magnet'
p111
(F-692.76
F264.04
F842.72
tp112
sS'gyro'
p113
(I-116
I-524
I100
tp114
sS'accel'
p115
(F0.21
F-0.17
F-0.92
tp116
sg11
F1397235885.95
sa(dp117
S'magnet'
p118
(F-698.28
F258.52
F843.64
tp119
sS'gyro'
p120
(I-147
I-488
I99
tp121
sS'accel'
p122
(F0.21
F-0.17
F-0.91
tp123
sg11
F1397235886.07
sa(dp124
S'magnet'
p125
(F-693.68
F269.56
F845.48
tp126
sS'gyro'
p127
(I-123
I-524
I89
tp128
sS'accel'
p129
(F0.21
F-0.17
F-0.91
tp130
sg11
F1397235886.19
sa(dp131
S'magnet'
p132
(F-695.52
F263.12
F850.08
tp133
sS'gyro'
p134
(I-140
I-526
I89
tp135
sS'accel'
p136
(F0.21
F-0.17
F-0.91
tp137
sg11
F1397235886.3
sa(dp138
S'magnet'
p139
(F-695.52
F264.04
F842.72
tp140
sS'gyro'
p141
(I-133
I-510
I95
tp142
sS'accel'
p143
(F0.21
F-0.17
F-0.91
tp144
sg11
F1397235886.42
sa(dp145
S'magnet'
p146
(F-694.6
F265.88
F843.64
tp147
sS'gyro'
p148
(I-129
I-520
I38
tp149
sS'accel'
p150
(F0.21
F-0.17
F-0.92
tp151
sg11
F1397235886.56
sa(dp152
S'magnet'
p153
(F-692.76
F264.96
F843.64
tp154
sS'gyro'
p155
(I-117
I-521
I68
tp156
sS'accel'
p157
(F0.22
F-0.17
F-0.91
tp158
sg11
F1397235886.68
sa(dp159
S'magnet'
p160
(F-691.84
F265.88
F844.56
tp161
sS'gyro'
p162
(I-132
I-480
I97
tp163
sS'accel'
p164
(F0.21
F-0.17
F-0.92
tp165
sg11
F1397235886.8
sa(dp166
S'magnet'
p167
(F-693.68
F261.28
F844.56
tp168
sS'gyro'
p169
(I-106
I-513
I77
tp170
sS'accel'
p171
(F0.22
F-0.17
F-0.92
tp172
sg11
F1397235886.9
sa(dp173
S'magnet'
p174
(F-693.68
F260.36
F845.48
tp175
sS'gyro'
p176
(I-137
I-474
I130
tp177
sS'accel'
p178
(F0.21
F-0.17
F-0.91
tp179
sg11
F1397235887.04
sa(dp180
S'magnet'
p181
(F-695.52
F263.12
F844.56
tp182
sS'gyro'
p183
(I-92
I-541
I63
tp184
sS'accel'
p185
(F0.21
F-0.16
F-0.92
tp186
sg11
F1397235887.16
sa(dp187
S'magnet'
p188
(F-694.6
F264.04
F848.24
tp189
sS'gyro'
p190
(I-133
I-509
I23
tp191
sS'accel'
p192
(F0.21
F-0.17
F-0.91
tp193
sg11
F1397235887.29
sa(dp194
S'magnet'
p195
(F-693.68
F270.48
F842.72
tp196
sS'gyro'
p197
(I-122
I-541
I62
tp198
sS'accel'
p199
(F0.22
F-0.16
F-0.92
tp200
sg11
F1397235887.41
sa(dp201
S'magnet'
p202
(F-694.6
F258.52
F846.4
tp203
sS'gyro'
p204
(I-112
I-464
I75
tp205
sS'accel'
p206
(F0.22
F-0.17
F-0.92
tp207
sg11
F1397235887.54
sa(dp208
S'magnet'
p209
(F-698.28
F263.12
F842.72
tp210
sS'gyro'
p211
(I-106
I-589
I111
tp212
sS'accel'
p213
(F0.22
F-0.16
F-0.92
tp214
sg11
F1397235887.65
sa(dp215
S'magnet'
p216
(F-690.92
F265.88
F841.8
tp217
sS'gyro'
p218
(I-599
I-124
I5225
tp219
sS'accel'
p220
(F0.21
F-0.17
F-0.92
tp221
sg11
F1397235887.77
sa(dp222
S'magnet'
p223
(F-685.4
F291.64
F840.88
tp224
sS'gyro'
p225
(I-278
I-96
I5281
tp226
sS'accel'
p227
(F0.17
F-0.12
F-0.92
tp228
sg11
F1397235887.88
sa(dp229
S'magnet'
p230
(F-674.36
F324.76
F839.96
tp231
sS'gyro'
p232
(I-1037
I-946
I14117
tp233
sS'accel'
p234
(F0.16
F-0.22
F-0.94
tp235
sg11
F1397235888.03
sa(dp236
S'magnet'
p237
(F-620.08
F378.12
F848.24
tp238
sS'gyro'
p239
(I-5424
I7563
I14486
tp240
sS'accel'
p241
(F0.2
F-0.17
F-0.91
tp242
sg11
F1397235888.15
sa(dp243
S'magnet'
p244
(F-609.96
F410.32
F835.36
tp245
sS'gyro'
p246
(I1184
I-9435
I5778
tp247
sS'accel'
p248
(F0.16
F-0.05
F-0.88
tp249
sg11
F1397235888.27
sa(dp250
S'magnet'
p251
(F-581.44
F413.08
F834.44
tp252
sS'gyro'
p253
(I-528
I-3320
I4817
tp254
sS'accel'
p255
(F0.22
F-0.07
F-0.9
tp256
sg11
F1397235888.38
sa(dp257
S'magnet'
p258
(F-522.56
F428.72
F851.92
tp259
sS'gyro'
p260
(I-4672
I-11344
I3783
tp261
sS'accel'
p262
(F0.16
F-0.19
F-0.85
tp263
sg11
F1397235888.53
sa(dp264
S'magnet'
p265
(F-540.96
F391.0
F859.28
tp266
sS'gyro'
p267
(I-19209
I-1578
I-4415
tp268
sS'accel'
p269
(F0.13
F-0.06
F-0.75
tp270
sg11
F1397235888.64
sa(dp271
S'magnet'
p272
(F-545.56
F306.36
F884.12
tp273
sS'gyro'
p274
(I5581
I-618
I3548
tp275
sS'accel'
p276
(F0.01
F-0.05
F-0.81
tp277
sg11
F1397235888.79
sa(dp278
S'magnet'
p279
(F-535.44
F337.64
F877.68
tp280
sS'gyro'
p281
(I-2712
I-552
I1737
tp282
sS'accel'
p283
(F0.02
F0.1
F-0.78
tp284
sg11
F1397235888.92
sa(dp285
S'magnet'
p286
(F449.88
F0.92
F2508.84
tp287
sS'gyro'
p288
(I8209
I-1710
I2141
tp289
sS'accel'
p290
(F0.17
F0.09
F-0.87
tp291
sg11
F1397235889.03
sa(dp292
S'magnet'
p293
(F-521.64
F389.16
F866.64
tp294
sS'gyro'
p295
(I3889
I-3311
I119
tp296
sS'accel'
p297
(F0.13
F-0.01
F-1.01
tp298
sg11
F1397235889.16
sa(dp299
S'magnet'
p300
(F-527.16
F386.4
F864.8
tp301
sS'gyro'
p302
(I2509
I-706
I-1912
tp303
sS'accel'
p304
(F0.22
F0.08
F-0.93
tp305
sg11
F1397235889.26
sa(dp306
S'magnet'
p307
(F296.24
F2381.88
F-14602.24
tp308
sS'gyro'
p309
(I-4148
I1017
I-1445
tp310
sS'accel'
p311
(F0.19
F0.07
F-0.93
tp312
sg11
F1397235889.41
sa(dp313
S'magnet'
p314
(F-517.04
F358.8
F879.52
tp315
sS'gyro'
p316
(I-2537
I-9751
I-1512
tp317
sS'accel'
p318
(F0.22
F0.07
F-0.91
tp319
sg11
F1397235889.53
sa(dp320
S'magnet'
p321
(F-464.6
F339.48
F895.16
tp322
sS'gyro'
p323
(I-2619
I-7780
I10421
tp324
sS'accel'
p325
(F-0.27
F0.09
F-0.78
tp326
sg11
F1397235889.64
sa(dp327
S'magnet'
p328
(F-397.44
F339.48
F915.4
tp329
sS'gyro'
p330
(I1752
I-2285
I2997
tp331
sS'accel'
p332
(F-0.25
F0.09
F-0.79
tp333
sg11
F1397235889.79
sa(dp334
S'magnet'
p335
(F-370.76
F362.48
F900.68
tp336
sS'gyro'
p337
(I6538
I6499
I3066
tp338
sS'accel'
p339
(F-0.32
F0.15
F-0.71
tp340
sg11
F1397235889.91
sa(dp341
S'magnet'
p342
(F-446.2
F401.12
F878.6
tp343
sS'gyro'
p344
(I3622
I11440
I-4663
tp345
sS'accel'
p346
(F-0.13
F-0.07
F-0.8
tp347
sg11
F1397235890.02
sa(dp348
S'magnet'
p349
(F-483.92
F387.32
F878.6
tp350
sS'gyro'
p351
(I-2143
I5495
I-6246
tp352
sS'accel'
p353
(F0.13
F0.04
F-0.95
tp354
sg11
F1397235890.16
sa(dp355
S'magnet'
p356
(F-480.24
F355.12
F892.4
tp357
sS'gyro'
p358
(I6063
I-5339
I6549
tp359
sS'accel'
p360
(F-0.06
F0.02
F-0.86
tp361
sg11
F1397235890.27
sa(dp362
S'magnet'
p363
(F-463.68
F346.84
F894.24
tp364
sS'gyro'
p365
(I-7301
I-9971
I73
tp366
sS'accel'
p367
(F-0.04
F0.18
F-0.82
tp368
sg11
F1397235890.42
sa(dp369
S'magnet'
p370
(F-451.72
F366.16
F895.16
tp371
sS'gyro'
p372
(I5331
I1914
I4087
tp373
sS'accel'
p374
(F0.06
F0.12
F-0.93
tp375
sg11
F1397235890.52
sa(dp376
S'magnet'
p377
(F-453.56
F380.88
F886.88
tp378
sS'gyro'
p379
(I13892
I-6792
I-2416
tp380
sS'accel'
p381
(F-0.09
F0.06
F-0.81
tp382
sg11
F1397235890.64
sa(dp383
S'magnet'
p384
(F-443.44
F450.8
F851.92
tp385
sS'gyro'
p386
(I3457
I-8269
I-3345
tp387
sS'accel'
p388
(F-0.2
F-0.11
F-0.8
tp389
sg11
F1397235890.79
sa(dp390
S'magnet'
p391
(F-432.4
F465.52
F840.88
tp392
sS'gyro'
p393
(I-962
I1402
I-544
tp394
sS'accel'
p395
(F-0.12
F-0.2
F-0.87
tp396
sg11
F1397235890.91
sa(dp397
S'magnet'
p398
(F-429.64
F478.4
F841.8
tp399
sS'gyro'
p400
(I-647
I-1331
I1808
tp401
sS'accel'
p402
(F-0.2
F-0.23
F-0.83
tp403
sg11
F1397235891.03
sa(dp404
S'magnet'
p405
(F-421.36
F460.92
F848.24
tp406
sS'gyro'
p407
(I-159
I3570
I3270
tp408
sS'accel'
p409
(F-0.14
F-0.2
F-0.84
tp410
sg11
F1397235891.15
sa(dp411
S'magnet'
p412
(F-427.8
F463.68
F847.32
tp413
sS'gyro'
p414
(I2784
I2678
I15
tp415
sS'accel'
p416
(F-0.14
F-0.24
F-0.86
tp417
sg11
F1397235891.28
sa(dp418
S'magnet'
p419
(F-458.16
F463.68
F836.28
tp420
sS'gyro'
p421
(I-2378
I-2111
I-619
tp422
sS'accel'
p423
(F0.17
F-0.26
F-1.03
tp424
sg11
F1397235891.4
sa(dp425
S'magnet'
p426
(F-439.76
F466.44
F839.04
tp427
sS'gyro'
p428
(I3887
I-2396
I6220
tp429
sS'accel'
p430
(F-0.01
F-0.22
F-1.08
tp431
sg11
F1397235891.52
sa(dp432
S'magnet'
p433
(F-457.24
F489.44
F816.96
tp434
sS'gyro'
p435
(I-1605
I-2347
I2101
tp436
sS'accel'
p437
(F0.22
F-0.38
F-1.06
tp438
sg11
F1397235891.67
sa(dp439
S'magnet'
p440
(F-418.6
F485.76
F828.92
tp441
sS'gyro'
p442
(I-4496
I-4530
I-2153
tp443
sS'accel'
p444
(F0.1
F-0.26
F-0.95
tp445
sg11
F1397235891.79
sa(dp446
S'magnet'
p447
(F-400.2
F464.6
F842.72
tp448
sS'gyro'
p449
(I-7014
I-14440
I-5122
tp450
sS'accel'
p451
(F-0.19
F-0.41
F-0.81
tp452
sg11
F1397235891.91
sa(dp453
S'magnet'
p454
(F-368.92
F425.04
F877.68
tp455
sS'gyro'
p456
(I-13260
I-7742
I3367
tp457
sS'accel'
p458
(F-0.22
F-0.02
F-0.94
tp459
sg11
F1397235892.04
sa(dp460
S'magnet'
p461
(F7545.84
F296.24
F-20961.28
tp462
sS'gyro'
p463
(I-2019
I-6957
I-9738
tp464
sS'accel'
p465
(F-0.61
F-0.37
F-0.67
tp466
sg11
F1397235892.16
sa(dp467
S'magnet'
p468
(F-263.12
F368.0
F885.96
tp469
sS'gyro'
p470
(I-4059
I-9127
I-2591
tp471
sS'accel'
p472
(F-0.81
F-0.07
F-0.69
tp473
sg11
F1397235892.32
sa(dp474
S'magnet'
p475
(F-263.12
F365.24
F883.2
tp476
sS'gyro'
p477
(I-808
I-3351
I-5236
tp478
sS'accel'
p479
(F-0.81
F-0.04
F-0.56
tp480
sg11
F1397235892.44
sa(dp481
S'magnet'
p482
(F-248.4
F392.84
F861.12
tp483
sS'gyro'
p484
(I7509
I6602
I-1250
tp485
sS'accel'
p486
(F-0.57
F-0.06
F-0.44
tp487
sg11
F1397235892.56
sa(dp488
S'magnet'
p489
(F-257.6
F422.28
F848.24
tp490
sS'gyro'
p491
(I4349
I21591
I5718
tp492
sS'accel'
p493
(F-0.7
F0.14
F-0.58
tp494
sg11
F1397235892.68
sa(dp495
S'magnet'
p496
(F-345.0
F403.88
F881.36
tp497
sS'gyro'
p498
(I-2833
I14393
I-3642
tp499
sS'accel'
p500
(F-0.71
F0.07
F-0.58
tp501
sg11
F1397235892.8
sa(dp502
S'magnet'
p503
(F-465.52
F388.24
F879.52
tp504
sS'gyro'
p505
(I-436
I15904
I-2528
tp506
sS'accel'
p507
(F-0.34
F0.19
F-0.7
tp508
sg11
F1397235892.92
sa(dp509
S'magnet'
p510
(F-417.68
F412.16
F872.16
tp511
sS'gyro'
p512
(I-493
I-7362
I7600
tp513
sS'accel'
p514
(F-0.65
F-0.34
F-0.61
tp515
sg11
F1397235893.06
sa(dp516
S'magnet'
p517
(F-466.44
F402.04
F871.24
tp518
sS'gyro'
p519
(I-2417
I-3376
I-2745
tp520
sS'accel'
p521
(F-0.45
F-0.18
F-0.69
tp522
sg11
F1397235893.17
sa(dp523
S'magnet'
p524
(F-495.88
F393.76
F880.44
tp525
sS'gyro'
p526
(I-3391
I-308
I-2415
tp527
sS'accel'
p528
(F-0.27
F-0.2
F-0.74
tp529
sg11
F1397235893.31
sa(dp530
S'magnet'
p531
(F-512.44
F355.12
F881.36
tp532
sS'gyro'
p533
(I-365
I-4285
I18150
tp534
sS'accel'
p535
(F0.3
F0.05
F-0.91
tp536
sg11
F1397235893.43
sa(dp537
S'magnet'
p538
(F-518.88
F366.16
F876.76
tp539
sS'gyro'
p540
(I-226
I-2579
I-99
tp541
sS'accel'
p542
(F0.15
F-0.01
F-0.95
tp543
sg11
F1397235893.55
sa(dp544
S'magnet'
p545
(F-517.96
F361.56
F877.68
tp546
sS'gyro'
p547
(I632
I1673
I-1667
tp548
sS'accel'
p549
(F0.01
F-0.06
F-0.92
tp550
sg11
F1397235893.69
sa(dp551
S'magnet'
p552
(F-523.48
F362.48
F872.16
tp553
sS'gyro'
p554
(I-832
I-1763
I1201
tp555
sS'accel'
p556
(F-0.02
F-0.04
F-1.01
tp557
sg11
F1397235893.83
sa(dp558
S'magnet'
p559
(F-518.88
F373.52
F874.0
tp560
sS'gyro'
p561
(I3946
I-3114
I2382
tp562
sS'accel'
p563
(F-0.0
F-0.03
F-0.96
tp564
sg11
F1397235893.95
sa(dp565
S'magnet'
p566
(F0.92
F9.2
F15722.8
tp567
sS'gyro'
p568
(I-1354
I-2254
I-2100
tp569
sS'accel'
p570
(F0.05
F0.05
F-0.95
tp571
sg11
F1397235894.05
sa(dp572
S'magnet'
p573
(F-412.16
F391.92
F882.28
tp574
sS'gyro'
p575
(I874
I-24092
I-1230
tp576
sS'accel'
p577
(F-0.11
F-0.19
F-0.93
tp578
sg11
F1397235894.2
sa(dp579
S'magnet'
p580
(F-368.0
F376.28
F888.72
tp581
sS'gyro'
p582
(I-8714
I20881
I-670
tp583
sS'accel'
p584
(F-0.31
F-0.13
F-0.69
tp585
sg11
F1397235894.32
sa(dp586
S'magnet'
p587
(F-491.28
F334.88
F895.16
tp588
sS'gyro'
p589
(I-5857
I-770
I1347
tp590
sS'accel'
p591
(F-0.4
F-0.11
F-0.73
tp592
sg11
F1397235894.44
sa(dp593
S'magnet'
p594
(F-515.2
F311.88
F889.64
tp595
sS'gyro'
p596
(I-416
I-2037
I184
tp597
sS'accel'
p598
(F-0.17
F0.01
F-0.85
tp599
sg11
F1397235894.59
sa(dp600
S'magnet'
p601
(F-493.12
F299.92
F897.0
tp602
sS'gyro'
p603
(I-1227
I-1952
I1399
tp604
sS'accel'
p605
(F-0.25
F0.06
F-0.84
tp606
sg11
F1397235894.71
sa(dp607
S'magnet'
p608
(F-502.32
F306.36
F898.84
tp609
sS'gyro'
p610
(I264
I312
I-82
tp611
sS'accel'
p612
(F-0.16
F0.04
F-0.87
tp613
sg11
F1397235894.83
sa(dp614
S'magnet'
p615
(F-506.92
F305.44
F898.84
tp616
sS'gyro'
p617
(I1912
I-573
I1918
tp618
sS'accel'
p619
(F-0.09
F0.07
F-0.91
tp620
sg11
F1397235894.95
sa(dp621
S'magnet'
p622
(F-514.28
F333.04
F884.12
tp623
sS'gyro'
p624
(I438
I8909
I-3069
tp625
sS'accel'
p626
(F-0.09
F0.04
F-0.82
tp627
sg11
F1397235895.08
sa(dp628
S'magnet'
p629
(F-540.96
F322.0
F878.6
tp630
sS'gyro'
p631
(I851
I-3220
I2000
tp632
sS'accel'
p633
(F-0.01
F0.04
F-0.9
tp634
sg11
F1397235895.19
sa(dp635
S'magnet'
p636
(F-530.84
F333.04
F876.76
tp637
sS'gyro'
p638
(I238
I-1506
I1040
tp639
sS'accel'
p640
(F-0.03
F0.0
F-0.89
tp641
sg11
F1397235895.31
sa(dp642
S'magnet'
p643
(F-514.28
F335.8
F887.8
tp644
sS'gyro'
p645
(I1627
I-7031
I2157
tp646
sS'accel'
p647
(F-0.1
F-0.01
F-0.88
tp648
sg11
F1397235895.43
sa(dp649
S'magnet'
p650
(F-471.04
F364.32
F890.56
tp651
sS'gyro'
p652
(I2780
I628
I4286
tp653
sS'accel'
p654
(F-0.15
F0.0
F-0.91
tp655
sg11
F1397235895.58
sa(dp656
S'magnet'
p657
(F-443.44
F375.36
F889.64
tp658
sS'gyro'
p659
(I58
I-10118
I-413
tp660
sS'accel'
p661
(F-0.18
F-0.02
F-0.88
tp662
sg11
F1397235895.7
sa(dp663
S'magnet'
p664
(F-415.84
F376.28
F893.32
tp665
sS'gyro'
p666
(I81
I-3777
I543
tp667
sS'accel'
p668
(F-0.34
F-0.01
F-0.81
tp669
sg11
F1397235895.81
sa(dp670
S'magnet'
p671
(F-415.84
F377.2
F887.8
tp672
sS'gyro'
p673
(I-129
I-907
I-1424
tp674
sS'accel'
p675
(F-0.33
F-0.05
F-0.76
tp676
sg11
F1397235895.92
sa(dp677
S'magnet'
p678
(F-388.24
F384.56
F886.88
tp679
sS'gyro'
p680
(I2695
I2636
I1883
tp681
sS'accel'
p682
(F-0.37
F0.09
F-0.71
tp683
sg11
F1397235896.06
sa(dp684
S'magnet'
p685
(F-383.64
F380.88
F887.8
tp686
sS'gyro'
p687
(I-3389
I-7143
I6576
tp688
sS'accel'
p689
(F-0.35
F0.12
F-0.76
tp690
sg11
F1397235896.18
sa(dp691
S'magnet'
p692
(F-401.12
F386.4
F886.88
tp693
sS'gyro'
p694
(I-3585
I11963
I5331
tp695
sS'accel'
p696
(F-0.24
F0.09
F-0.79
tp697
sg11
F1397235896.29
sa(dp698
S'magnet'
p699
(F-444.36
F368.92
F885.96
tp700
sS'gyro'
p701
(I1808
I2058
I3093
tp702
sS'accel'
p703
(F-0.18
F-0.03
F-0.86
tp704
sg11
F1397235896.43
sa(dp705
S'magnet'
p706
(F-442.52
F383.64
F889.64
tp707
sS'gyro'
p708
(I-3886
I-7564
I-2755
tp709
sS'accel'
p710
(F-0.25
F0.06
F-0.9
tp711
sg11
F1397235896.56
sa(dp712
S'magnet'
p713
(F-420.44
F356.04
F899.76
tp714
sS'gyro'
p715
(I17914
I-14531
I15302
tp716
sS'accel'
p717
(F-0.26
F-0.5
F-0.39
tp718
sg11
F1397235896.68
sa(dp719
S'magnet'
p720
(F-272.32
F424.12
F848.24
tp721
sS'gyro'
p722
(I-32048
I2944
I2380
tp723
sS'accel'
p724
(F-0.98
F0.14
F-0.09
tp725
sg11
F1397235896.81
sa(dp726
S'magnet'
p727
(F-297.16
F426.88
F852.84
tp728
sS'gyro'
p729
(I1900
I-3568
I-16351
tp730
sS'accel'
p731
(F-0.58
F-0.25
F-0.64
tp732
sg11
F1397235896.94
sa(dp733
S'magnet'
p734
(F-258.52
F428.72
F838.12
tp735
sS'gyro'
p736
(I-6094
I-7771
I-9726
tp737
sS'accel'
p738
(F-0.63
F-0.16
F-0.56
tp739
sg11
F1397235897.06
sa(dp740
S'magnet'
p741
(F-230.92
F418.6
F829.84
tp742
sS'gyro'
p743
(I-363
I2287
I-2223
tp744
sS'accel'
p745
(F-0.83
F-0.22
F-0.24
tp746
sg11
F1397235897.2
sa(dp747
S'magnet'
p748
(F-296.24
F439.76
F847.32
tp749
sS'gyro'
p750
(I4877
I15654
I-11238
tp751
sS'accel'
p752
(F-0.6
F-0.3
F-0.32
tp753
sg11
F1397235897.32
sa(dp754
S'magnet'
p755
(F-349.6
F492.2
F810.52
tp756
sS'gyro'
p757
(I8291
I3377
I-11386
tp758
sS'accel'
p759
(F-0.72
F-0.44
F-0.35
tp760
sg11
F1397235897.44
sa(dp761
S'magnet'
p762
(F-432.4
F510.6
F793.96
tp763
sS'gyro'
p764
(I100
I6327
I-2000
tp765
sS'accel'
p766
(F-0.55
F-0.65
F-0.42
tp767
sg11
F1397235897.59
sa(dp768
S'magnet'
p769
(F-430.56
F508.76
F795.8
tp770
sS'gyro'
p771
(I-459
I-8212
I3142
tp772
sS'accel'
p773
(F-0.71
F-0.63
F-0.25
tp774
sg11
F1397235897.71
sa(dp775
S'magnet'
p776
(F-410.32
F490.36
F816.04
tp777
sS'gyro'
p778
(I178
I-2630
I-940
tp779
sS'accel'
p780
(F-0.57
F-0.66
F-0.37
tp781
sg11
F1397235897.83
sa(dp782
S'magnet'
p783
(F-399.28
F490.36
F821.56
tp784
sS'gyro'
p785
(I-8427
I605
I2884
tp786
sS'accel'
p787
(F-0.63
F-0.68
F-0.48
tp788
sg11
F1397235897.95
sa(dp789
S'magnet'
p790
(F-399.28
F446.2
F843.64
tp791
sS'gyro'
p792
(I-8321
I4931
I4289
tp793
sS'accel'
p794
(F-0.65
F-0.46
F-0.51
tp795
sg11
F1397235898.08
sa(dp796
S'magnet'
p797
(F-419.52
F434.24
F855.6
tp798
sS'gyro'
p799
(I4490
I9225
I-6227
tp800
sS'accel'
p801
(F-0.57
F-0.56
F-0.59
tp802
sg11
F1397235898.2
sa(dp803
S'magnet'
p804
(F-429.64
F431.48
F859.28
tp805
sS'gyro'
p806
(I-261
I-6832
I742
tp807
sS'accel'
p808
(F-0.51
F-0.4
F-0.6
tp809
sg11
F1397235898.32
sa(dp810
S'magnet'
p811
(F-388.24
F444.36
F857.44
tp812
sS'gyro'
p813
(I3131
I-5048
I2527
tp814
sS'accel'
p815
(F-0.47
F-0.51
F-0.59
tp816
sg11
F1397235898.47
sa(dp817
S'magnet'
p818
(F-380.88
F462.76
F837.2
tp819
sS'gyro'
p820
(I8593
I-3967
I-4549
tp821
sS'accel'
p822
(F-0.53
F-0.55
F-0.52
tp823
sg11
F1397235898.58
sa(dp824
S'magnet'
p825
(F-387.32
F491.28
F809.6
tp826
sS'gyro'
p827
(I7041
I1308
I-104
tp828
sS'accel'
p829
(F-0.47
F-0.66
F-0.52
tp830
sg11
F1397235898.71
sa(dp831
S'magnet'
p832
(F-349.6
F517.04
F775.56
tp833
sS'gyro'
p834
(I2963
I-9195
I4283
tp835
sS'accel'
p836
(F-0.57
F-0.59
F-0.28
tp837
sg11
F1397235898.83
sa(dp838
S'magnet'
p839
(F-314.64
F517.96
F760.84
tp840
sS'gyro'
p841
(I-5854
I-914
I-1009
tp842
sS'accel'
p843
(F-0.69
F-0.48
F-0.25
tp844
sg11
F1397235898.95
sa(dp845
S'magnet'
p846
(F-348.68
F503.24
F793.04
tp847
sS'gyro'
p848
(I-260
I-7023
I-3967
tp849
sS'accel'
p850
(F-0.62
F-0.64
F-0.45
tp851
sg11
F1397235899.07
sa(dp852
S'magnet'
p853
(F-351.44
F510.6
F785.68
tp854
sS'gyro'
p855
(I-1278
I-5887
I3623
tp856
sS'accel'
p857
(F-0.64
F-0.72
F-0.45
tp858
sg11
F1397235899.22
sa(dp859
S'magnet'
p860
(F-284.28
F503.24
F770.96
tp861
sS'gyro'
p862
(I1725
I-2255
I2678
tp863
sS'accel'
p864
(F-0.76
F-0.78
F-0.28
tp865
sg11
F1397235899.36
sa(dp866
S'magnet'
p867
(F-247.48
F488.52
F759.0
tp868
sS'gyro'
p869
(I-309
I-2197
I-602
tp870
sS'accel'
p871
(F-0.79
F-0.56
F-0.01
tp872
sg11
F1397235899.48
sa(dp873
S'magnet'
p874
(F-259.44
F489.44
F774.64
tp875
sS'gyro'
p876
(I-2627
I1920
I-1529
tp877
sS'accel'
p878
(F-0.78
F-0.47
F-0.09
tp879
sg11
F1397235899.6
sa(dp880
S'magnet'
p881
(F-288.88
F495.88
F777.4
tp882
sS'gyro'
p883
(I3172
I16754
I2346
tp884
sS'accel'
p885
(F-0.73
F-0.45
F-0.09
tp886
sg11
F1397235899.72
sa(dp887
S'magnet'
p888
(F-282.44
F483.92
F784.76
tp889
sS'gyro'
p890
(I-8257
I-14823
I1175
tp891
sS'accel'
p892
(F-0.7
F-0.42
F-0.22
tp893
sg11
F1397235899.86
sa(dp894
S'magnet'
p895
(F-253.92
F482.08
F781.08
tp896
sS'gyro'
p897
(I-256
I-5670
I-695
tp898
sS'accel'
p899
(F-0.78
F-0.35
F-0.23
tp900
sg11
F1397235899.97
sa(dp901
S'magnet'
p902
(F-234.6
F465.52
F777.4
tp903
sS'gyro'
p904
(I-1543
I-14333
I-1701
tp905
sS'accel'
p906
(F-0.81
F-0.43
F-0.05
tp907
sg11
F1397235900.1
sa(dp908
S'magnet'
p909
(F-184.0
F452.64
F750.72
tp910
sS'gyro'
p911
(I-1227
I-4910
I4020
tp912
sS'accel'
p913
(F-0.81
F-0.47
F0.14
tp914
sg11
F1397235900.22
sa(dp915
S'magnet'
p916
(F-163.76
F442.52
F735.08
tp917
sS'gyro'
p918
(I-778
I-3698
I-566
tp919
sS'accel'
p920
(F-0.71
F-0.42
F0.21
tp921
sg11
F1397235900.35
sa(dp922
S'magnet'
p923
(F-141.68
F433.32
F713.92
tp924
sS'gyro'
p925
(I-1349
I-13847
I-634
tp926
sS'accel'
p927
(F-0.64
F-0.05
F0.2
tp928
sg11
F1397235900.49
sa(dp929
S'magnet'
p930
(F-113.16
F402.04
F701.96
tp931
sS'gyro'
p932
(I1015
I-1792
I-1839
tp933
sS'accel'
p934
(F-0.76
F-0.09
F0.34
tp935
sg11
F1397235900.62
sa(dp936
S'magnet'
p937
(F2508.84
F15722.8
F0.92
tp938
sS'gyro'
p939
(I-13527
I9860
I-443
tp940
sS'accel'
p941
(F-0.65
F0.05
F0.33
tp942
sg11
F1397235900.74
sa(dp943
S'magnet'
p944
(F-111.32
F402.96
F690.0
tp945
sS'gyro'
p946
(I324
I-8461
I544
tp947
sS'accel'
p948
(F-1.03
F-0.04
F0.4
tp949
sg11
F1397235900.85
sa(dp950
S'magnet'
p951
(F-156.4
F386.4
F788.44
tp952
sS'gyro'
p953
(I-4879
I27211
I-3655
tp954
sS'accel'
p955
(F-0.73
F-0.13
F0.17
tp956
sg11
F1397235901.0
sa(dp957
S'magnet'
p958
(F-220.8
F364.32
F849.16
tp959
sS'gyro'
p960
(I-3436
I32752
I2139
tp961
sS'accel'
p962
(F-0.74
F-0.16
F0.12
tp963
sg11
F1397235901.12
sa(dp964
S'magnet'
p965
(F-313.72
F359.72
F888.72
tp966
sS'gyro'
p967
(I-3359
I6802
I-135
tp968
sS'accel'
p969
(F-0.58
F-0.21
F-0.33
tp970
sg11
F1397235901.24
sa(dp971
S'magnet'
p972
(F-325.68
F336.72
F897.0
tp973
sS'gyro'
p974
(I-1739
I-15224
I4032
tp975
sS'accel'
p976
(F-0.69
F-0.14
F-0.4
tp977
sg11
F1397235901.35
sa(dp978
S'magnet'
p979
(F-230.92
F315.56
F874.92
tp980
sS'gyro'
p981
(I-1328
I-19553
I3186
tp982
sS'accel'
p983
(F-0.79
F-0.09
F-0.34
tp984
sg11
F1397235901.49
sa(dp985
S'magnet'
p986
(F-144.44
F291.64
F822.48
tp987
sS'gyro'
p988
(I-1290
I-10784
I1919
tp989
sS'accel'
p990
(F-0.84
F-0.09
F-0.08
tp991
sg11
F1397235901.64
sa(dp992
S'magnet'
p993
(F-135.24
F287.96
F816.04
tp994
sS'gyro'
p995
(I808
I4009
I120
tp996
sS'accel'
p997
(F-0.83
F-0.06
F-0.06
tp998
sg11
F1397235901.75
sa(dp999
S'magnet'
p1000
(F-136.16
F289.8
F816.96
tp1001
sS'gyro'
p1002
(I-96
I-990
I56
tp1003
sS'accel'
p1004
(F-0.89
F-0.02
F-0.05
tp1005
sg11
F1397235901.87
sa(dp1006
S'magnet'
p1007
(F-162.84
F297.16
F843.64
tp1008
sS'gyro'
p1009
(I1194
I9199
I-960
tp1010
sS'accel'
p1011
(F-0.85
F-0.05
F-0.07
tp1012
sg11
F1397235901.99
sa(dp1013
S'magnet'
p1014
(F-179.4
F305.44
F851.92
tp1015
sS'gyro'
p1016
(I-672
I-3679
I-1291
tp1017
sS'accel'
p1018
(F-0.84
F0.01
F-0.12
tp1019
sg11
F1397235902.11
sa(dp1020
S'magnet'
p1021
(F-149.04
F311.88
F819.72
tp1022
sS'gyro'
p1023
(I-103
I-9630
I-2310
tp1024
sS'accel'
p1025
(F-0.9
F-0.0
F-0.08
tp1026
sg11
F1397235902.23
sa(dp1027
S'magnet'
p1028
(F-150.88
F319.24
F817.88
tp1029
sS'gyro'
p1030
(I1929
I-796
I-313
tp1031
sS'accel'
p1032
(F-0.79
F-0.05
F-0.09
tp1033
sg11
F1397235902.39
sa(dp1034
S'magnet'
p1035
(F-136.16
F328.44
F799.48
tp1036
sS'gyro'
p1037
(I2287
I1138
I-820
tp1038
sS'accel'
p1039
(F-0.93
F-0.09
F0.0
tp1040
sg11
F1397235902.51
sa(dp1041
S'magnet'
p1042
(F-126.96
F338.56
F787.52
tp1043
sS'gyro'
p1044
(I-1417
I-12005
I2
tp1045
sS'accel'
p1046
(F-0.96
F-0.12
F0.1
tp1047
sg11
F1397235902.62
sa(dp1048
S'magnet'
p1049
(F-108.56
F329.36
F762.68
tp1050
sS'gyro'
p1051
(I-4629
I-16347
I2352
tp1052
sS'accel'
p1053
(F-0.85
F-0.15
F0.21
tp1054
sg11
F1397235902.75
sa(dp1055
S'magnet'
p1056
(F-87.4
F326.6
F720.36
tp1057
sS'gyro'
p1058
(I1054
I-774
I-1363
tp1059
sS'accel'
p1060
(F-0.88
F-0.17
F0.36
tp1061
sg11
F1397235902.87
sa(dp1062
S'magnet'
p1063
(F-96.6
F345.0
F712.08
tp1064
sS'gyro'
p1065
(I916
I-1975
I-2564
tp1066
sS'accel'
p1067
(F-0.86
F-0.17
F0.42
tp1068
sg11
F1397235903.0
sa(dp1069
S'magnet'
p1070
(F-105.8
F371.68
F732.32
tp1071
sS'gyro'
p1072
(I2803
I4962
I-1474
tp1073
sS'accel'
p1074
(F-0.78
F-0.15
F0.38
tp1075
sg11
F1397235903.11
sa(dp1076
S'magnet'
p1077
(F-98.44
F375.36
F720.36
tp1078
sS'gyro'
p1079
(I962
I4657
I437
tp1080
sS'accel'
p1081
(F-1.02
F-0.09
F0.37
tp1082
sg11
F1397235903.25
sa(dp1083
S'magnet'
p1084
(F-105.8
F373.52
F736.0
tp1085
sS'gyro'
p1086
(I-1521
I10960
I1151
tp1087
sS'accel'
p1088
(F-0.91
F-0.08
F0.26
tp1089
sg11
F1397235903.38
sa(dp1090
S'magnet'
p1091
(F-130.64
F377.2
F780.16
tp1092
sS'gyro'
p1093
(I157
I11866
I-258
tp1094
sS'accel'
p1095
(F-0.81
F-0.14
F0.06
tp1096
sg11
F1397235903.49
sa(dp1097
S'magnet'
p1098
(F-149.96
F355.12
F809.6
tp1099
sS'gyro'
p1100
(I-882
I4132
I6201
tp1101
sS'accel'
p1102
(F-0.8
F-0.2
F0.04
tp1103
sg11
F1397235903.61
sa(dp1104
S'magnet'
p1105
(F-177.56
F336.72
F839.96
tp1106
sS'gyro'
p1107
(I-5617
I-21239
I189
tp1108
sS'accel'
p1109
(F-0.87
F-0.36
F-0.18
tp1110
sg11
F1397235903.75
sa(dp1111
S'magnet'
p1112
(F-160.08
F337.64
F828.92
tp1113
sS'gyro'
p1114
(I-1262
I-15726
I-2668
tp1115
sS'accel'
p1116
(F-0.96
F-0.31
F-0.1
tp1117
sg11
F1397235903.87
sa(dp1118
S'magnet'
p1119
(F-100.28
F333.96
F763.6
tp1120
sS'gyro'
p1121
(I3769
I-18358
I-4735
tp1122
sS'accel'
p1123
(F-1.02
F-0.32
F0.23
tp1124
sg11
F1397235903.99
sa(dp1125
S'magnet'
p1126
(F-103.96
F372.6
F717.6
tp1127
sS'gyro'
p1128
(I-998
I-20134
I3527
tp1129
sS'accel'
p1130
(F-0.86
F-0.34
F0.18
tp1131
sg11
F1397235904.13
sa(dp1132
S'magnet'
p1133
(F-94.76
F387.32
F603.52
tp1134
sS'gyro'
p1135
(I-1149
I12115
I-14576
tp1136
sS'accel'
p1137
(F-0.56
F-0.18
F0.5
tp1138
sg11
F1397235904.25
sa(dp1139
S'magnet'
p1140
(F-202.4
F469.2
F520.72
tp1141
sS'gyro'
p1142
(I-6673
I-25965
I-13252
tp1143
sS'accel'
p1144
(F-0.49
F-0.36
F0.86
tp1145
sg11
F1397235904.4
sa(dp1146
S'magnet'
p1147
(F-251.16
F536.36
F557.52
tp1148
sS'gyro'
p1149
(I-6690
I-7093
I-11699
tp1150
sS'accel'
p1151
(F-0.2
F-0.47
F1.15
tp1152
sg11
F1397235904.52
sa(dp1153
S'magnet'
p1154
(F-324.76
F554.76
F596.16
tp1155
sS'gyro'
p1156
(I-13781
I-279
I-11578
tp1157
sS'accel'
p1158
(F-0.0
F-0.53
F1.02
tp1159
sg11
F1397235904.64
sa(dp1160
S'magnet'
p1161
(F-380.88
F563.04
F661.48
tp1162
sS'gyro'
p1163
(I-11600
I3668
I-1899
tp1164
sS'accel'
p1165
(F0.07
F-0.59
F0.74
tp1166
sg11
F1397235904.76
sa(dp1167
S'magnet'
p1168
(F-400.2
F535.44
F736.0
tp1169
sS'gyro'
p1170
(I-10550
I-417
I-3635
tp1171
sS'accel'
p1172
(F0.24
F-0.79
F0.41
tp1173
sg11
F1397235904.88
sa(dp1174
S'magnet'
p1175
(F-401.12
F506.0
F786.6
tp1176
sS'gyro'
p1177
(I23
I-3723
I4051
tp1178
sS'accel'
p1179
(F0.28
F-1.02
F0.12
tp1180
sg11
F1397235905.02
sa(dp1181
S'magnet'
p1182
(F-382.72
F498.64
F787.52
tp1183
sS'gyro'
p1184
(I7309
I7318
I-4258
tp1185
sS'accel'
p1186
(F0.26
F-1.08
F-0.06
tp1187
sg11
F1397235905.14
sa(dp1188
S'magnet'
p1189
(F-425.96
F535.44
F741.52
tp1190
sS'gyro'
p1191
(I15305
I-1947
I1255
tp1192
sS'accel'
p1193
(F0.29
F-1.0
F-0.03
tp1194
sg11
F1397235905.25
sa(dp1195
S'magnet'
p1196
(F-400.2
F571.32
F655.04
tp1197
sS'gyro'
p1198
(I15293
I-3230
I1325
tp1199
sS'accel'
p1200
(F0.25
F-0.75
F0.35
tp1201
sg11
F1397235905.4
sa(dp1202
S'magnet'
p1203
(F-409.4
F573.16
F562.12
tp1204
sS'gyro'
p1205
(I18510
I-5121
I258
tp1206
sS'accel'
p1207
(F0.19
F-0.78
F0.81
tp1208
sg11
F1397235905.52
sa(dp1209
S'magnet'
p1210
(F-414.92
F566.72
F542.8
tp1211
sS'gyro'
p1212
(I5353
I13
I-503
tp1213
sS'accel'
p1214
(F0.27
F-0.64
F1.0
tp1215
sg11
F1397235905.64
sa(dp1216
S'magnet'
p1217
(F-418.6
F547.4
F497.72
tp1218
sS'gyro'
p1219
(I2671
I1877
I-993
tp1220
sS'accel'
p1221
(F0.26
F-0.6
F1.37
tp1222
sg11
F1397235905.76
sa(dp1223
S'magnet'
p1224
(F-412.16
F570.4
F521.64
tp1225
sS'gyro'
p1226
(I-17244
I-9005
I3145
tp1227
sS'accel'
p1228
(F0.16
F-0.66
F1.44
tp1229
sg11
F1397235905.87
sa(dp1230
S'magnet'
p1231
(F-400.2
F574.08
F643.08
tp1232
sS'gyro'
p1233
(I-22651
I1316
I13
tp1234
sS'accel'
p1235
(F0.16
F-0.6
F1.06
tp1236
sg11
F1397235906.01
sa(dp1237
S'magnet'
p1238
(F-406.64
F528.08
F752.56
tp1239
sS'gyro'
p1240
(I-19075
I3175
I1807
tp1241
sS'accel'
p1242
(F0.28
F-0.54
F0.47
tp1243
sg11
F1397235906.16
sa(dp1244
S'magnet'
p1245
(F-395.6
F468.28
F813.28
tp1246
sS'gyro'
p1247
(I-7846
I2383
I-125
tp1248
sS'accel'
p1249
(F0.29
F-0.69
F0.07
tp1250
sg11
F1397235906.24
sa(dp1251
S'magnet'
p1252
(F-390.08
F462.76
F822.48
tp1253
sS'gyro'
p1254
(I-494
I-4080
I1642
tp1255
sS'accel'
p1256
(F0.24
F-0.89
F-0.08
tp1257
sg11
F1397235906.39
sa(dp1258
S'magnet'
p1259
(F-389.16
F463.68
F817.88
tp1260
sS'gyro'
p1261
(I5248
I-1254
I-77
tp1262
sS'accel'
p1263
(F0.25
F-1.04
F-0.19
tp1264
sg11
F1397235906.5
sa(dp1265
S'magnet'
p1266
(F-378.12
F478.4
F808.68
tp1267
sS'gyro'
p1268
(I15534
I-14236
I4130
tp1269
sS'accel'
p1270
(F0.25
F-0.81
F-0.16
tp1271
sg11
F1397235906.63
sa(dp1272
S'magnet'
p1273
(F-328.44
F538.2
F724.04
tp1274
sS'gyro'
p1275
(I19756
I-7583
I-2040
tp1276
sS'accel'
p1277
(F0.23
F-0.58
F0.14
tp1278
sg11
F1397235906.77
sa(dp1279
S'magnet'
p1280
(F-330.28
F560.28
F603.52
tp1281
sS'gyro'
p1282
(I20488
I-14213
I-10220
tp1283
sS'accel'
p1284
(F0.39
F-0.72
F0.71
tp1285
sg11
F1397235906.88
sa(dp1286
S'magnet'
p1287
(F-385.48
F449.88
F529.92
tp1288
sS'gyro'
p1289
(I6316
I-1380
I-1129
tp1290
sS'accel'
p1291
(F0.42
F-0.72
F0.88
tp1292
sg11
F1397235907.0
sa(dp1293
S'magnet'
p1294
(F-423.2
F544.64
F493.12
tp1295
sS'gyro'
p1296
(I4426
I2812
I-4069
tp1297
sS'accel'
p1298
(F0.57
F-0.78
F1.23
tp1299
sg11
F1397235907.15
sa(dp1300
S'magnet'
p1301
(F-411.24
F564.88
F524.4
tp1302
sS'gyro'
p1303
(I-15994
I-1402
I7490
tp1304
sS'accel'
p1305
(F0.65
F-0.77
F1.31
tp1306
sg11
F1397235907.25
sa(dp1307
S'magnet'
p1308
(F-343.16
F564.88
F644.0
tp1309
sS'gyro'
p1310
(I-25316
I5919
I8816
tp1311
sS'accel'
p1312
(F0.46
F-0.64
F1.02
tp1313
sg11
F1397235907.4
sa(dp1314
S'magnet'
p1315
(F-325.68
F501.4
F775.56
tp1316
sS'gyro'
p1317
(I-23953
I17458
I3003
tp1318
sS'accel'
p1319
(F0.37
F-0.5
F0.62
tp1320
sg11
F1397235907.5
sa(dp1321
S'magnet'
p1322
(F-363.4
F458.16
F828.0
tp1323
sS'gyro'
p1324
(I-15757
I1020
I-1309
tp1325
sS'accel'
p1326
(F0.47
F-0.59
F0.05
tp1327
sg11
F1397235907.62
sa(dp1328
S'magnet'
p1329
(F-356.04
F352.36
F884.12
tp1330
sS'gyro'
p1331
(I19087
I-3081
I-5112
tp1332
sS'accel'
p1333
(F0.29
F-0.59
F-0.33
tp1334
sg11
F1397235907.76
sa(dp1335
S'magnet'
p1336
(F-370.76
F409.4
F855.6
tp1337
sS'gyro'
p1338
(I5816
I-7621
I1497
tp1339
sS'accel'
p1340
(F0.25
F-0.87
F-0.35
tp1341
sg11
F1397235907.88
sa(dp1342
S'magnet'
p1343
(F-354.2
F444.36
F834.44
tp1344
sS'gyro'
p1345
(I16220
I-4057
I980
tp1346
sS'accel'
p1347
(F0.27
F-0.82
F-0.36
tp1348
sg11
F1397235908.0
sa(dp1349
S'magnet'
p1350
(F-332.12
F518.88
F751.64
tp1351
sS'gyro'
p1352
(I26294
I7258
I8011
tp1353
sS'accel'
p1354
(F0.04
F-0.73
F0.19
tp1355
sg11
F1397235908.13
sa(dp1356
S'magnet'
p1357
(F-291.64
F544.64
F656.88
tp1358
sS'gyro'
p1359
(I8901
I2140
I14778
tp1360
sS'accel'
p1361
(F-0.28
F-0.89
F0.6
tp1362
sg11
F1397235908.28
sa(dp1363
S'magnet'
p1364
(F-221.72
F514.28
F626.52
tp1365
sS'gyro'
p1366
(I11648
I3611
I3437
tp1367
sS'accel'
p1368
(F-0.38
F-0.9
F0.77
tp1369
sg11
F1397235908.39
sa(dp1370
S'magnet'
p1371
(F-223.56
F517.96
F623.76
tp1372
sS'gyro'
p1373
(I-2
I8515
I-4606
tp1374
sS'accel'
p1375
(F-0.38
F-0.85
F0.85
tp1376
sg11
F1397235908.52
sa(dp1377
S'magnet'
p1378
(F-243.8
F526.24
F667.92
tp1379
sS'gyro'
p1380
(I-7076
I524
I-1130
tp1381
sS'accel'
p1382
(F-0.45
F-0.7
F0.69
tp1383
sg11
F1397235908.63
sa(dp1384
S'magnet'
p1385
(F-240.12
F513.36
F690.92
tp1386
sS'gyro'
p1387
(I-4366
I1909
I3933
tp1388
sS'accel'
p1389
(F-0.47
F-0.66
F0.49
tp1390
sg11
F1397235908.77
sa(dp1391
S'magnet'
p1392
(F-223.56
F507.84
F706.56
tp1393
sS'gyro'
p1394
(I2933
I-2158
I972
tp1395
sS'accel'
p1396
(F-0.53
F-0.65
F0.45
tp1397
sg11
F1397235908.88
sa(dp1398
S'magnet'
p1399
(F-219.88
F505.08
F688.16
tp1400
sS'gyro'
p1401
(I4325
I3255
I-582
tp1402
sS'accel'
p1403
(F-0.56
F-0.66
F0.48
tp1404
sg11
F1397235909.0
sa(dp1405
S'magnet'
p1406
(F-223.56
F507.84
F683.56
tp1407
sS'gyro'
p1408
(I-470
I3163
I2975
tp1409
sS'accel'
p1410
(F-0.55
F-0.64
F0.48
tp1411
sg11
F1397235909.13
sa(dp1412
S'magnet'
p1413
(F-216.2
F504.16
F685.4
tp1414
sS'gyro'
p1415
(I-606
I817
I-601
tp1416
sS'accel'
p1417
(F-0.56
F-0.59
F0.47
tp1418
sg11
F1397235909.25
sa(dp1419
S'magnet'
p1420
(F-221.72
F504.16
F669.76
tp1421
sS'gyro'
p1422
(I2746
I-1729
I154
tp1423
sS'accel'
p1424
(F-0.51
F-0.62
F0.48
tp1425
sg11
F1397235909.38
sa(dp1426
S'magnet'
p1427
(F-212.52
F505.08
F656.88
tp1428
sS'gyro'
p1429
(I-462
I-1878
I1637
tp1430
sS'accel'
p1431
(F-0.56
F-0.61
F0.56
tp1432
sg11
F1397235909.51
sa(dp1433
S'magnet'
p1434
(F-209.76
F494.96
F655.04
tp1435
sS'gyro'
p1436
(I-1638
I-1568
I1238
tp1437
sS'accel'
p1438
(F-0.61
F-0.57
F0.56
tp1439
sg11
F1397235909.62
sa(dp1440
S'magnet'
p1441
(F-205.16
F500.48
F656.88
tp1442
sS'gyro'
p1443
(I140
I-1260
I949
tp1444
sS'accel'
p1445
(F-0.58
F-0.55
F0.57
tp1446
sg11
F1397235909.76
sa(dp1447
S'magnet'
p1448
(F-197.8
F492.2
F653.2
tp1449
sS'gyro'
p1450
(I-1533
I-2126
I607
tp1451
sS'accel'
p1452
(F-0.59
F-0.53
F0.58
tp1453
sg11
F1397235909.88
sa(dp1454
S'magnet'
p1455
(F-190.44
F488.52
F654.12
tp1456
sS'gyro'
p1457
(I-1501
I-4198
I2429
tp1458
sS'accel'
p1459
(F-0.58
F-0.53
F0.61
tp1460
sg11
F1397235910.01
sa(dp1461
S'magnet'
p1462
(F-175.72
F474.72
F648.6
tp1463
sS'gyro'
p1464
(I-683
I-1788
I2123
tp1465
sS'accel'
p1466
(F-0.55
F-0.53
F0.64
tp1467
sg11
F1397235910.13
sa(dp1468
S'magnet'
p1469
(F-160.08
F457.24
F637.56
tp1470
sS'gyro'
p1471
(I-742
I-5558
I2332
tp1472
sS'accel'
p1473
(F-0.52
F-0.49
F0.7
tp1474
sg11
F1397235910.25
sa(dp1475
S'magnet'
p1476
(F-138.0
F438.84
F626.52
tp1477
sS'gyro'
p1478
(I-1352
I-7205
I3522
tp1479
sS'accel'
p1480
(F-0.5
F-0.44
F0.73
tp1481
sg11
F1397235910.38
sa(dp1482
S'magnet'
p1483
(F-116.84
F403.88
F616.4
tp1484
sS'gyro'
p1485
(I-3173
I-3355
I3469
tp1486
sS'accel'
p1487
(F-0.62
F-0.47
F0.77
tp1488
sg11
F1397235910.5
sa(dp1489
S'magnet'
p1490
(F-110.4
F386.4
F628.36
tp1491
sS'gyro'
p1492
(I-5909
I1802
I2237
tp1493
sS'accel'
p1494
(F-0.71
F-0.43
F0.69
tp1495
sg11
F1397235910.63
sa(dp1496
S'magnet'
p1497
(F-107.64
F388.24
F638.48
tp1498
sS'gyro'
p1499
(I145
I9791
I-2138
tp1500
sS'accel'
p1501
(F-0.72
F-0.48
F0.55
tp1502
sg11
F1397235910.75
sa(dp1503
S'magnet'
p1504
(F-138.0
F413.08
F677.12
tp1505
sS'gyro'
p1506
(I-410
I-4364
I-13072
tp1507
sS'accel'
p1508
(F-0.73
F-0.46
F0.55
tp1509
sg11
F1397235910.87
sa(dp1510
S'magnet'
p1511
(F-198.72
F479.32
F660.56
tp1512
sS'gyro'
p1513
(I4654
I-26713
I-8143
tp1514
sS'accel'
p1515
(F-0.05
F-0.52
F0.68
tp1516
sg11
F1397235911.02
sa(dp1517
S'magnet'
p1518
(F-226.32
F495.88
F641.24
tp1519
sS'gyro'
p1520
(I6733
I-4068
I-14170
tp1521
sS'accel'
p1522
(F-0.07
F-0.67
F0.75
tp1523
sg11
F1397235911.14
sa(dp1524
S'magnet'
p1525
(F-273.24
F522.56
F587.88
tp1526
sS'gyro'
p1527
(I2514
I710
I-7204
tp1528
sS'accel'
p1529
(F-0.12
F-0.72
F0.78
tp1530
sg11
F1397235911.26
sa(dp1531
S'magnet'
p1532
(F-308.2
F533.6
F580.52
tp1533
sS'gyro'
p1534
(I4297
I-7484
I-5490
tp1535
sS'accel'
p1536
(F0.01
F-0.71
F0.83
tp1537
sg11
F1397235911.38
sa(dp1538
S'magnet'
p1539
(F-316.48
F539.12
F559.36
tp1540
sS'gyro'
p1541
(I2195
I6534
I-3467
tp1542
sS'accel'
p1543
(F-0.02
F-0.83
F0.84
tp1544
sg11
F1397235911.5
sa(dp1545
S'magnet'
p1546
(F-321.08
F542.8
F552.0
tp1547
sS'gyro'
p1548
(I-3214
I-15939
I4709
tp1549
sS'accel'
p1550
(F-0.09
F-0.82
F0.89
tp1551
sg11
F1397235911.65
sa(dp1552
S'magnet'
p1553
(F-339.48
F544.64
F553.84
tp1554
sS'gyro'
p1555
(I-5566
I-1651
I2245
tp1556
sS'accel'
p1557
(F-0.06
F-0.71
F0.88
tp1558
sg11
F1397235911.77
sa(dp1559
S'magnet'
p1560
(F-340.4
F548.32
F575.0
tp1561
sS'gyro'
p1562
(I350
I20952
I-898
tp1563
sS'accel'
p1564
(F0.01
F-0.72
F0.87
tp1565
sg11
F1397235911.9
sa(dp1566
S'magnet'
p1567
(F-339.48
F551.08
F615.48
tp1568
sS'gyro'
p1569
(I-2177
I1040
I-3367
tp1570
sS'accel'
p1571
(F-0.0
F-0.82
F0.81
tp1572
sg11
F1397235912.02
sa(dp1573
S'magnet'
p1574
(F-356.96
F552.92
F629.28
tp1575
sS'gyro'
p1576
(I-10034
I1212
I-3839
tp1577
sS'accel'
p1578
(F-0.09
F-0.85
F0.91
tp1579
sg11
F1397235912.13
sa(dp1580
S'magnet'
p1581
(F-391.92
F546.48
F702.88
tp1582
sS'gyro'
p1583
(I-13820
I3476
I-6499
tp1584
sS'accel'
p1585
(F-0.04
F-0.78
F0.77
tp1586
sg11
F1397235912.26
sa(dp1587
S'magnet'
p1588
(F-433.32
F505.08
F778.32
tp1589
sS'gyro'
p1590
(I-12689
I4066
I-3695
tp1591
sS'accel'
p1592
(F0.11
F-0.83
F0.49
tp1593
sg11
F1397235912.4
sa(dp1594
S'magnet'
p1595
(F-441.6
F452.64
F829.84
tp1596
sS'gyro'
p1597
(I-9417
I-2635
I-1455
tp1598
sS'accel'
p1599
(F0.18
F-0.84
F0.2
tp1600
sg11
F1397235912.54
sa(dp1601
S'magnet'
p1602
(F-426.88
F433.32
F851.92
tp1603
sS'gyro'
p1604
(I-1721
I-3418
I840
tp1605
sS'accel'
p1606
(F0.18
F-0.94
F-0.09
tp1607
sg11
F1397235912.66
sa(dp1608
S'magnet'
p1609
(F-432.4
F456.32
F828.92
tp1610
sS'gyro'
p1611
(I10896
I2762
I-240
tp1612
sS'accel'
p1613
(F0.24
F-0.97
F-0.19
tp1614
sg11
F1397235912.78
sa(dp1615
S'magnet'
p1616
(F-439.76
F495.88
F804.08
tp1617
sS'gyro'
p1618
(I13955
I-2340
I3440
tp1619
sS'accel'
p1620
(F0.26
F-0.85
F-0.06
tp1621
sg11
F1397235912.9
sa(dp1622
S'magnet'
p1623
(F-425.04
F545.56
F719.44
tp1624
sS'gyro'
p1625
(I15945
I-8713
I7630
tp1626
sS'accel'
p1627
(F0.19
F-0.76
F0.27
tp1628
sg11
F1397235913.01
sa(dp1629
S'magnet'
p1630
(F-400.2
F566.72
F608.12
tp1631
sS'gyro'
p1632
(I15235
I5070
I1437
tp1633
sS'accel'
p1634
(F0.09
F-0.69
F0.78
tp1635
sg11
F1397235913.14
sa(dp1636
S'magnet'
p1637
(F-399.28
F559.36
F537.28
tp1638
sS'gyro'
p1639
(I7367
I-4423
I1465
tp1640
sS'accel'
p1641
(F0.09
F-0.78
F0.99
tp1642
sg11
F1397235913.26
sa(dp1643
S'magnet'
p1644
(F-401.12
F542.8
F509.68
tp1645
sS'gyro'
p1646
(I-2077
I-659
I3131
tp1647
sS'accel'
p1648
(F0.02
F-0.77
F1.14
tp1649
sg11
F1397235913.4
sa(dp1650
S'magnet'
p1651
(F-383.64
F561.2
F542.8
tp1652
sS'gyro'
p1653
(I-10726
I-2091
I1186
tp1654
sS'accel'
p1655
(F-0.01
F-0.79
F1.15
tp1656
sg11
F1397235913.52
sa(dp1657
S'magnet'
p1658
(F-378.12
F561.2
F628.36
tp1659
sS'gyro'
p1660
(I-15884
I347
I-1763
tp1661
sS'accel'
p1662
(F0.01
F-0.74
F1.01
tp1663
sg11
F1397235913.64
sa(dp1664
S'magnet'
p1665
(F-393.76
F532.68
F731.4
tp1666
sS'gyro'
p1667
(I-15421
I4157
I-3773
tp1668
sS'accel'
p1669
(F0.06
F-0.71
F0.71
tp1670
sg11
F1397235913.78
sa(dp1671
S'magnet'
p1672
(F-404.8
F512.44
F763.6
tp1673
sS'gyro'
p1674
(I-11384
I-1594
I-2834
tp1675
sS'accel'
p1676
(F0.12
F-0.74
F0.38
tp1677
sg11
F1397235913.9
sa(dp1678
S'magnet'
p1679
(F-410.32
F480.24
F812.36
tp1680
sS'gyro'
p1681
(I-1593
I26
I-2279
tp1682
sS'accel'
p1683
(F0.19
F-0.85
F0.13
tp1684
sg11
F1397235914.01
sa(dp1685
S'magnet'
p1686
(F-415.84
F468.28
F824.32
tp1687
sS'gyro'
p1688
(I2224
I-2361
I-1126
tp1689
sS'accel'
p1690
(F0.25
F-0.99
F0.03
tp1691
sg11
F1397235914.14
sa(dp1692
S'magnet'
p1693
(F-414.92
F484.84
F805.0
tp1694
sS'gyro'
p1695
(I1227
I2509
I-408
tp1696
sS'accel'
p1697
(F0.24
F-1.07
F-0.05
tp1698
sg11
F1397235914.26
sa(dp1699
S'magnet'
p1700
(F-427.8
F504.16
F782.92
tp1701
sS'gyro'
p1702
(I9381
I2641
I5610
tp1703
sS'accel'
p1704
(F0.29
F-0.96
F0.0
tp1705
sg11
F1397235914.4
sa(dp1706
S'magnet'
p1707
(F-386.4
F541.88
F716.68
tp1708
sS'gyro'
p1709
(I14634
I-5170
I7274
tp1710
sS'accel'
p1711
(F0.17
F-0.86
F0.28
tp1712
sg11
F1397235914.52
sa(dp1713
S'magnet'
p1714
(F-371.68
F559.36
F642.16
tp1715
sS'gyro'
p1716
(I10448
I801
I1941
tp1717
sS'accel'
p1718
(F0.02
F-0.82
F0.56
tp1719
sg11
F1397235914.63
sa(dp1720
S'magnet'
p1721
(F-365.24
F563.96
F598.0
tp1722
sS'gyro'
p1723
(I8338
I1449
I756
tp1724
sS'accel'
p1725
(F0.01
F-0.81
F0.71
tp1726
sg11
F1397235914.75
sa(dp1727
S'magnet'
p1728
(F-5407.76
F296.24
F-20961.28
tp1729
sS'gyro'
p1730
(I5122
I-3924
I1717
tp1731
sS'accel'
p1732
(F-0.08
F-0.78
F0.82
tp1733
sg11
F1397235914.9
sa(dp1734
S'magnet'
p1735
(F-355.12
F553.84
F540.96
tp1736
sS'gyro'
p1737
(I3
I12194
I483
tp1738
sS'accel'
p1739
(F-0.11
F-0.72
F0.92
tp1740
sg11
F1397235915.02
sa(dp1741
S'magnet'
p1742
(F449.88
F0.92
F2508.84
tp1743
sS'gyro'
p1744
(I-4091
I2684
I2622
tp1745
sS'accel'
p1746
(F-0.15
F-0.68
F0.89
tp1747
sg11
F1397235915.15
sa(dp1748
S'magnet'
p1749
(F-313.72
F543.72
F583.28
tp1750
sS'gyro'
p1751
(I-3075
I3639
I2743
tp1752
sS'accel'
p1753
(F-0.25
F-0.63
F0.84
tp1754
sg11
F1397235915.26
sa(dp1755
S'magnet'
p1756
(F-289.8
F543.72
F608.12
tp1757
sS'gyro'
p1758
(I-1492
I10836
I1925
tp1759
sS'accel'
p1760
(F-0.34
F-0.62
F0.78
tp1761
sg11
F1397235915.39
sa(dp1762
S'magnet'
p1763
(F-271.4
F538.2
F632.96
tp1764
sS'gyro'
p1765
(I-2249
I-582
I3234
tp1766
sS'accel'
p1767
(F-0.42
F-0.65
F0.66
tp1768
sg11
F1397235915.51
sa(dp1769
S'magnet'
p1770
(F-254.84
F513.36
F643.08
tp1771
sS'gyro'
p1772
(I-1306
I965
I2607
tp1773
sS'accel'
p1774
(F-0.53
F-0.67
F0.6
tp1775
sg11
F1397235915.63
sa(dp1776
S'magnet'
p1777
(F-246.56
F507.84
F650.44
tp1778
sS'gyro'
p1779
(I-5
I4849
I472
tp1780
sS'accel'
p1781
(F-0.57
F-0.68
F0.56
tp1782
sg11
F1397235915.76
sa(dp1783
S'magnet'
p1784
(F-252.08
F506.0
F675.28
tp1785
sS'gyro'
p1786
(I-1778
I12388
I-4160
tp1787
sS'accel'
p1788
(F-0.61
F-0.62
F0.44
tp1789
sg11
F1397235915.88
sa(dp1790
S'magnet'
p1791
(F-293.48
F523.48
F705.64
tp1792
sS'gyro'
p1793
(I-3580
I5060
I-2734
tp1794
sS'accel'
p1795
(F-0.59
F-0.68
F0.33
tp1796
sg11
F1397235916.0
sa(dp1797
S'magnet'
p1798
(F-307.28
F523.48
F724.04
tp1799
sS'gyro'
p1800
(I-1886
I-1587
I-596
tp1801
sS'accel'
p1802
(F-0.6
F-0.64
F0.26
tp1803
sg11
F1397235916.15
sa(dp1804
S'magnet'
p1805
(F-303.6
F517.96
F737.84
tp1806
sS'gyro'
p1807
(I-4823
I655
I1775
tp1808
sS'accel'
p1809
(F-0.68
F-0.65
F0.19
tp1810
sg11
F1397235916.27
sa(dp1811
S'magnet'
p1812
(F-286.12
F492.2
F765.44
tp1813
sS'gyro'
p1814
(I-211
I1900
I1324
tp1815
sS'accel'
p1816
(F-0.68
F-0.69
F0.11
tp1817
sg11
F1397235916.4
sa(dp1818
S'magnet'
p1819
(F-280.6
F480.24
F773.72
tp1820
sS'gyro'
p1821
(I-782
I2566
I744
tp1822
sS'accel'
p1823
(F-0.7
F-0.68
F0.07
tp1824
sg11
F1397235916.51
sa(dp1825
S'magnet'
p1826
(F-262.2
F464.6
F791.2
tp1827
sS'gyro'
p1828
(I-8536
I-3614
I3689
tp1829
sS'accel'
p1830
(F-0.78
F-0.61
F0.06
tp1831
sg11
F1397235916.62
sa(dp1832
S'magnet'
p1833
(F-262.2
F444.36
F801.32
tp1834
sS'gyro'
p1835
(I-5002
I1656
I2368
tp1836
sS'accel'
p1837
(F-0.73
F-0.56
F0.02
tp1838
sg11
F1397235916.76
sa(dp1839
S'magnet'
p1840
(F-247.48
F431.48
F817.88
tp1841
sS'gyro'
p1842
(I-2599
I5752
I1019
tp1843
sS'accel'
p1844
(F-0.76
F-0.54
F-0.05
tp1845
sg11
F1397235916.89
sa(dp1846
S'magnet'
p1847
(F-264.96
F430.56
F840.88
tp1848
sS'gyro'
p1849
(I2604
I3047
I-3283
tp1850
sS'accel'
p1851
(F-0.74
F-0.55
F-0.11
tp1852
sg11
F1397235917.05
sa(dp1853
S'magnet'
p1854
(F-277.84
F429.64
F833.52
tp1855
sS'gyro'
p1856
(I649
I-261
I-568
tp1857
sS'accel'
p1858
(F-0.77
F-0.51
F-0.11
tp1859
sg11
F1397235917.13
sa(dp1860
S'magnet'
p1861
(F-289.8
F437.0
F832.6
tp1862
sS'gyro'
p1863
(I-1174
I898
I-1384
tp1864
sS'accel'
p1865
(F-0.69
F-0.52
F-0.15
tp1866
sg11
F1397235917.25
sa(dp1867
S'magnet'
p1868
(F-292.56
F433.32
F832.6
tp1869
sS'gyro'
p1870
(I407
I1634
I-1717
tp1871
sS'accel'
p1872
(F-0.65
F-0.56
F-0.22
tp1873
sg11
F1397235917.4
sa(dp1874
S'magnet'
p1875
(F-207.0
F416.76
F801.32
tp1876
sS'gyro'
p1877
(I-852
I3606
I-3128
tp1878
sS'accel'
p1879
(F-0.71
F-0.53
F-0.06
tp1880
sg11
F1397235917.52
sa(dp1881
S'magnet'
p1882
(F-230.92
F435.16
F799.48
tp1883
sS'gyro'
p1884
(I-1207
I-10531
I3401
tp1885
sS'accel'
p1886
(F-0.7
F-0.57
F0.04
tp1887
sg11
F1397235917.64
sa(dp1888
S'magnet'
p1889
(F-200.56
F419.52
F801.32
tp1890
sS'gyro'
p1891
(I2103
I2119
I-2935
tp1892
sS'accel'
p1893
(F-0.8
F-0.52
F0.03
tp1894
sg11
F1397235917.76
sa(dp1895
S'magnet'
p1896
(F-220.8
F436.08
F800.4
tp1897
sS'gyro'
p1898
(I-372
I-4541
I-598
tp1899
sS'accel'
p1900
(F-0.73
F-0.54
F0.04
tp1901
sg11
F1397235917.88
sa(dp1902
S'magnet'
p1903
(F-5407.76
F296.24
F-20961.28
tp1904
sS'gyro'
p1905
(I4678
I4814
I-3044
tp1906
sS'accel'
p1907
(F-0.66
F-0.56
F0.05
tp1908
sg11
F1397235918.03
sa(dp1909
S'magnet'
p1910
(F-200.56
F447.12
F785.68
tp1911
sS'gyro'
p1912
(I-4764
I-6196
I-911
tp1913
sS'accel'
p1914
(F-0.73
F-0.65
F0.11
tp1915
sg11
F1397235918.14
sa(dp1916
S'magnet'
p1917
(F-184.0
F443.44
F766.36
tp1918
sS'gyro'
p1919
(I-2238
I-15168
I2985
tp1920
sS'accel'
p1921
(F-0.65
F-0.6
F0.15
tp1922
sg11
F1397235918.26
sa(dp1923
S'magnet'
p1924
(F-129.72
F432.4
F707.48
tp1925
sS'gyro'
p1926
(I-8267
I-5530
I-1779
tp1927
sS'accel'
p1928
(F-0.7
F-0.58
F0.39
tp1929
sg11
F1397235918.39
sa(dp1930
S'magnet'
p1931
(F-137.08
F434.24
F709.32
tp1932
sS'gyro'
p1933
(I2683
I-10443
I2337
tp1934
sS'accel'
p1935
(F-0.74
F-0.56
F0.37
tp1936
sg11
F1397235918.54
sa(dp1937
S'magnet'
p1938
(F-123.28
F435.16
F669.76
tp1939
sS'gyro'
p1940
(I2860
I6234
I3919
tp1941
sS'accel'
p1942
(F-0.58
F-0.66
F0.51
tp1943
sg11
F1397235918.66
sa(dp1944
S'magnet'
p1945
(F-109.48
F414.0
F638.48
tp1946
sS'gyro'
p1947
(I5979
I-4847
I5158
tp1948
sS'accel'
p1949
(F-0.47
F-0.54
F0.59
tp1950
sg11
F1397235918.79
sa(dp1951
S'magnet'
p1952
(F-115.92
F430.56
F623.76
tp1953
sS'gyro'
p1954
(I-1634
I6301
I-3419
tp1955
sS'accel'
p1956
(F-0.39
F-0.55
F0.7
tp1957
sg11
F1397235918.91
sa(dp1958
S'magnet'
p1959
(F-145.36
F462.76
F617.32
tp1960
sS'gyro'
p1961
(I-921
I-10887
I1880
tp1962
sS'accel'
p1963
(F-0.2
F-0.46
F0.66
tp1964
sg11
F1397235919.04
sa(dp1965
S'magnet'
p1966
(F-154.56
F472.88
F617.32
tp1967
sS'gyro'
p1968
(I-8981
I26199
I-3090
tp1969
sS'accel'
p1970
(F-0.27
F-0.37
F0.77
tp1971
sg11
F1397235919.15
sa(dp1972
S'magnet'
p1973
(F-198.72
F470.12
F741.52
tp1974
sS'gyro'
p1975
(I-521
I11128
I-3907
tp1976
sS'accel'
p1977
(F-0.33
F-0.63
F0.53
tp1978
sg11
F1397235919.27
sa(dp1979
S'magnet'
p1980
(F-5407.76
F296.24
F-20961.28
tp1981
sS'gyro'
p1982
(I-1282
I5719
I3935
tp1983
sS'accel'
p1984
(F-0.47
F-0.73
F0.34
tp1985
sg11
F1397235919.42
sa(dp1986
S'magnet'
p1987
(F-239.2
F435.16
F808.68
tp1988
sS'gyro'
p1989
(I-2885
I4542
I5055
tp1990
sS'accel'
p1991
(F-0.6
F-0.69
F0.23
tp1992
sg11
F1397235919.54
sa(dp1993
S'magnet'
p1994
(F-263.12
F410.32
F847.32
tp1995
sS'gyro'
p1996
(I-2688
I11179
I1979
tp1997
sS'accel'
p1998
(F-0.61
F-0.6
F0.07
tp1999
sg11
F1397235919.65
sa(dp2000
S'magnet'
p2001
(F-294.4
F408.48
F862.04
tp2002
sS'gyro'
p2003
(I-905
I6482
I61
tp2004
sS'accel'
p2005
(F-0.68
F-0.57
F-0.04
tp2006
sg11
F1397235919.78
sa(dp2007
S'magnet'
p2008
(F-320.16
F394.68
F864.8
tp2009
sS'gyro'
p2010
(I-3656
I-868
I248
tp2011
sS'accel'
p2012
(F-0.64
F-0.63
F-0.1
tp2013
sg11
F1397235919.89
sa(dp2014
S'magnet'
p2015
(F-285.2
F356.04
F873.08
tp2016
sS'gyro'
p2017
(I-7155
I-8493
I3288
tp2018
sS'accel'
p2019
(F-0.62
F-0.67
F-0.25
tp2020
sg11
F1397235920.04
sa(dp2021
S'magnet'
p2022
(F-218.96
F344.08
F857.44
tp2023
sS'gyro'
p2024
(I-154
I-12179
I-1098
tp2025
sS'accel'
p2026
(F-0.65
F-0.55
F-0.24
tp2027
sg11
F1397235920.17
sa(dp2028
S'magnet'
p2029
(F-178.48
F345.0
F821.56
tp2030
sS'gyro'
p2031
(I-2243
I-13861
I-608
tp2032
sS'accel'
p2033
(F-0.57
F-0.2
F-0.29
tp2034
sg11
F1397235920.29
sa(dp2035
S'magnet'
p2036
(F-118.68
F356.96
F744.28
tp2037
sS'gyro'
p2038
(I4888
I-677
I-4674
tp2039
sS'accel'
p2040
(F-0.69
F-0.31
F-0.07
tp2041
sg11
F1397235920.41
sa(dp2042
S'magnet'
p2043
(F-132.48
F389.16
F727.72
tp2044
sS'gyro'
p2045
(I6143
I-6083
I-5529
tp2046
sS'accel'
p2047
(F-0.6
F-0.45
F0.13
tp2048
sg11
F1397235920.55
sa(dp2049
S'magnet'
p2050
(F-143.52
F428.72
F662.4
tp2051
sS'gyro'
p2052
(I9174
I-5769
I-6580
tp2053
sS'accel'
p2054
(F-0.51
F-0.44
F0.28
tp2055
sg11
F1397235920.67
sa(dp2056
S'magnet'
p2057
(F-169.28
F450.8
F602.6
tp2058
sS'gyro'
p2059
(I4715
I-3821
I-3221
tp2060
sS'accel'
p2061
(F-0.55
F-0.43
F0.55
tp2062
sg11
F1397235920.78
sa(dp2063
S'magnet'
p2064
(F-198.72
F463.68
F574.08
tp2065
sS'gyro'
p2066
(I-4571
I-324
I-5739
tp2067
sS'accel'
p2068
(F-0.65
F-0.57
F0.91
tp2069
sg11
F1397235920.92
sa(dp2070
S'magnet'
p2071
(F-237.36
F511.52
F641.24
tp2072
sS'gyro'
p2073
(I-17972
I3611
I-11506
tp2074
sS'accel'
p2075
(F-0.53
F-0.71
F0.86
tp2076
sg11
F1397235921.04
sa(dp2077
S'magnet'
p2078
(F-311.88
F522.56
F748.88
tp2079
sS'gyro'
p2080
(I-17860
I6886
I-10375
tp2081
sS'accel'
p2082
(F-0.37
F-0.7
F0.64
tp2083
sg11
F1397235921.17
sa(dp2084
S'magnet'
p2085
(F-397.44
F470.12
F827.08
tp2086
sS'gyro'
p2087
(I-12543
I4783
I-7700
tp2088
sS'accel'
p2089
(F-0.16
F-0.74
F0.38
tp2090
sg11
F1397235921.31
sa(dp2091
S'magnet'
p2092
(F-402.04
F428.72
F857.44
tp2093
sS'gyro'
p2094
(I-4396
I-3364
I-595
tp2095
sS'accel'
p2096
(F-0.02
F-0.8
F-0.02
tp2097
sg11
F1397235921.43
sa(dp2098
S'magnet'
p2099
(F-393.76
F430.56
F853.76
tp2100
sS'gyro'
p2101
(I10454
I2427
I7010
tp2102
sS'accel'
p2103
(F0.01
F-0.87
F-0.17
tp2104
sg11
F1397235921.56
sa(dp2105
S'magnet'
p2106
(F-369.84
F481.16
F815.12
tp2107
sS'gyro'
p2108
(I17407
I-3908
I12675
tp2109
sS'accel'
p2110
(F-0.06
F-0.85
F-0.07
tp2111
sg11
F1397235921.68
sa(dp2112
S'magnet'
p2113
(F-278.76
F530.84
F713.92
tp2114
sS'gyro'
p2115
(I21272
I-9629
I11767
tp2116
sS'accel'
p2117
(F-0.18
F-0.61
F0.28
tp2118
sg11
F1397235921.83
sa(dp2119
S'magnet'
p2120
(F-225.4
F507.84
F585.12
tp2121
sS'gyro'
p2122
(I9223
I-13495
I1603
tp2123
sS'accel'
p2124
(F-0.37
F-0.57
F0.75
tp2125
sg11
F1397235921.95
sa(dp2126
S'magnet'
p2127
(F-228.16
F494.04
F549.24
tp2128
sS'gyro'
p2129
(I-4377
I6814
I-292
tp2130
sS'accel'
p2131
(F-0.42
F-0.64
F0.96
tp2132
sg11
F1397235922.07
sa(dp2133
S'magnet'
p2134
(F-235.52
F520.72
F599.84
tp2135
sS'gyro'
p2136
(I-13889
I2788
I-6402
tp2137
sS'accel'
p2138
(F-0.38
F-0.63
F0.88
tp2139
sg11
F1397235922.2
sa(dp2140
S'magnet'
p2141
(F-276.0
F538.2
F678.96
tp2142
sS'gyro'
p2143
(I-8819
I7141
I-4966
tp2144
sS'accel'
p2145
(F-0.31
F-0.61
F0.61
tp2146
sg11
F1397235922.32
sa(dp2147
S'magnet'
p2148
(F-303.6
F540.04
F716.68
tp2149
sS'gyro'
p2150
(I-227
I-3013
I-1021
tp2151
sS'accel'
p2152
(F-0.23
F-0.65
F0.48
tp2153
sg11
F1397235922.44
sa(dp2154
S'magnet'
p2155
(F-294.4
F543.72
F690.92
tp2156
sS'gyro'
p2157
(I4334
I-1765
I2095
tp2158
sS'accel'
p2159
(F-0.27
F-0.73
F0.48
tp2160
sg11
F1397235922.56
sa(dp2161
S'magnet'
p2162
(F-281.52
F541.88
F659.64
tp2163
sS'gyro'
p2164
(I5647
I-4700
I1221
tp2165
sS'accel'
p2166
(F-0.25
F-0.76
F0.55
tp2167
sg11
F1397235922.71
sa(dp2168
S'magnet'
p2169
(F-280.6
F541.88
F634.8
tp2170
sS'gyro'
p2171
(I4133
I-3455
I1618
tp2172
sS'accel'
p2173
(F-0.29
F-0.76
F0.68
tp2174
sg11
F1397235922.85
sa(dp2175
S'magnet'
p2176
(F-266.8
F536.36
F614.56
tp2177
sS'gyro'
p2178
(I346
I-2956
I2252
tp2179
sS'accel'
p2180
(F-0.33
F-0.76
F0.76
tp2181
sg11
F1397235922.94
sa(dp2182
S'magnet'
p2183
(F-257.6
F534.52
F614.56
tp2184
sS'gyro'
p2185
(I-3741
I-2314
I-1074
tp2186
sS'accel'
p2187
(F-0.3
F-0.76
F0.8
tp2188
sg11
F1397235923.07
sa(dp2189
S'magnet'
p2190
(F-270.48
F541.88
F630.2
tp2191
sS'gyro'
p2192
(I-7666
I-1300
I-2320
tp2193
sS'accel'
p2194
(F-0.26
F-0.76
F0.77
tp2195
sg11
F1397235923.19
sa(dp2196
S'magnet'
p2197
(F-285.2
F543.72
F667.92
tp2198
sS'gyro'
p2199
(I-5877
I1423
I-478
tp2200
sS'accel'
p2201
(F-0.21
F-0.79
F0.62
tp2202
sg11
F1397235923.34
sa(dp2203
S'magnet'
p2204
(F-287.96
F530.84
F690.0
tp2205
sS'gyro'
p2206
(I-486
I-1578
I644
tp2207
sS'accel'
p2208
(F-0.17
F-0.81
F0.56
tp2209
sg11
F1397235923.47
sa(dp2210
S'magnet'
p2211
(F-282.44
F529.92
F686.32
tp2212
sS'gyro'
p2213
(I-2006
I-6751
I-355
tp2214
sS'accel'
p2215
(F-0.24
F-0.94
F0.53
tp2216
sg11
F1397235923.56
sa(dp2217
S'magnet'
p2218
(F-290.72
F536.36
F691.84
tp2219
sS'gyro'
p2220
(I-249
I4177
I-2902
tp2221
sS'accel'
p2222
(F-0.23
F-1.03
F0.44
tp2223
sg11
F1397235923.7
sa(dp2224
S'magnet'
p2225
(F-304.52
F546.48
F696.44
tp2226
sS'gyro'
p2227
(I-922
I3758
I-2828
tp2228
sS'accel'
p2229
(F-0.16
F-0.89
F0.57
tp2230
sg11
F1397235923.82
sa(dp2231
S'magnet'
p2232
(F-340.4
F541.88
F723.12
tp2233
sS'gyro'
p2234
(I-17483
I-6028
I-4691
tp2235
sS'accel'
p2236
(F-0.13
F-1.0
F0.63
tp2237
sg11
F1397235923.94
sa(dp2238
S'magnet'
p2239
(F-336.72
F485.76
F811.44
tp2240
sS'gyro'
p2241
(I-18779
I13690
I533
tp2242
sS'accel'
p2243
(F-0.14
F-0.92
F0.24
tp2244
sg11
F1397235924.11
sa(dp2245
S'magnet'
p2246
(F-396.52
F414.92
F861.12
tp2247
sS'gyro'
p2248
(I57
I4377
I1390
tp2249
sS'accel'
p2250
(F0.08
F-0.79
F-0.08
tp2251
sg11
F1397235924.19
sa(dp2252
S'magnet'
p2253
(F449.88
F0.92
F2508.84
tp2254
sS'gyro'
p2255
(I14458
I-976
I5763
tp2256
sS'accel'
p2257
(F0.09
F-0.83
F-0.12
tp2258
sg11
F1397235924.31
sa(dp2259
S'magnet'
p2260
(F-358.8
F516.12
F765.44
tp2261
sS'gyro'
p2262
(I23855
I-3208
I11541
tp2263
sS'accel'
p2264
(F-0.02
F-0.86
F0.05
tp2265
sg11
F1397235924.45
sa(dp2266
S'magnet'
p2267
(F-277.84
F546.48
F631.12
tp2268
sS'gyro'
p2269
(I20119
I-8693
I8783
tp2270
sS'accel'
p2271
(F-0.22
F-0.75
F0.57
tp2272
sg11
F1397235924.57
sa(dp2273
S'magnet'
p2274
(F-256.68
F507.84
F547.4
tp2275
sS'gyro'
p2276
(I3596
I-380
I1853
tp2277
sS'accel'
p2278
(F-0.37
F-0.68
F0.88
tp2279
sg11
F1397235924.69
sa(dp2280
S'magnet'
p2281
(F-256.68
F520.72
F567.64
tp2282
sS'gyro'
p2283
(I-9319
I-1352
I-2427
tp2284
sS'accel'
p2285
(F-0.38
F-0.74
F1.0
tp2286
sg11
F1397235924.84
sa(dp2287
S'magnet'
p2288
(F-274.16
F535.44
F598.92
tp2289
sS'gyro'
p2290
(I-18666
I1697
I-6884
tp2291
sS'accel'
p2292
(F-0.31
F-0.77
F0.9
tp2293
sg11
F1397235924.96
sa(dp2294
S'magnet'
p2295
(F-321.08
F551.08
F701.96
tp2296
sS'gyro'
p2297
(I-18480
I1864
I-6476
tp2298
sS'accel'
p2299
(F-0.19
F-0.77
F0.63
tp2300
sg11
F1397235925.07
sa(dp2301
S'magnet'
p2302
(F-364.32
F497.72
F790.28
tp2303
sS'gyro'
p2304
(I-12200
I3307
I-4867
tp2305
sS'accel'
p2306
(F-0.06
F-0.79
F0.32
tp2307
sg11
F1397235925.22
sa(dp2308
S'magnet'
p2309
(F-391.0
F460.0
F834.44
tp2310
sS'gyro'
p2311
(I-3064
I808
I-1645
tp2312
sS'accel'
p2313
(F0.0
F-0.85
F0.09
tp2314
sg11
F1397235925.32
sa(dp2315
S'magnet'
p2316
(F-402.04
F455.4
F833.52
tp2317
sS'gyro'
p2318
(I7845
I4432
I4197
tp2319
sS'accel'
p2320
(F0.08
F-0.89
F-0.05
tp2321
sg11
F1397235925.45
sa(dp2322
S'magnet'
p2323
(F-374.44
F516.12
F779.24
tp2324
sS'gyro'
p2325
(I16461
I-2180
I10215
tp2326
sS'accel'
p2327
(F0.04
F-0.89
F0.02
tp2328
sg11
F1397235925.58
sa(dp2329
S'magnet'
p2330
(F-306.36
F551.08
F682.64
tp2331
sS'gyro'
p2332
(I18951
I-6789
I9165
tp2333
sS'accel'
p2334
(F-0.07
F-0.77
F0.33
tp2335
sg11
F1397235925.7
sa(dp2336
S'magnet'
p2337
(F-264.04
F522.56
F572.24
tp2338
sS'gyro'
p2339
(I14469
I-6310
I5203
tp2340
sS'accel'
p2341
(F-0.23
F-0.65
F0.69
tp2342
sg11
F1397235925.84
sa(dp2343
S'magnet'
p2344
(F-255.76
F496.8
F528.08
tp2345
sS'gyro'
p2346
(I2327
I-1244
I1521
tp2347
sS'accel'
p2348
(F-0.35
F-0.72
F0.98
tp2349
sg11
F1397235925.97
sa(dp2350
S'magnet'
p2351
(F-255.76
F494.96
F535.44
tp2352
sS'gyro'
p2353
(I-11041
I-731
I-2942
tp2354
sS'accel'
p2355
(F-0.36
F-0.71
F1.05
tp2356
sg11
F1397235926.08
sa(dp2357
S'magnet'
p2358
(F-276.0
F535.44
F607.2
tp2359
sS'gyro'
p2360
(I-18445
I2310
I-6365
tp2361
sS'accel'
p2362
(F-0.29
F-0.72
F0.94
tp2363
sg11
F1397235926.22
sa(dp2364
S'magnet'
p2365
(F-316.48
F547.4
F708.4
tp2366
sS'gyro'
p2367
(I-19380
I705
I-5536
tp2368
sS'accel'
p2369
(F-0.19
F-0.77
F0.69
tp2370
sg11
F1397235926.34
sa(dp2371
S'magnet'
p2372
(F-351.44
F494.04
F797.64
tp2373
sS'gyro'
p2374
(I-14247
I5592
I-3462
tp2375
sS'accel'
p2376
(F-0.13
F-0.77
F0.37
tp2377
sg11
F1397235926.48
sa(dp2378
S'magnet'
p2379
(F-386.4
F444.36
F850.08
tp2380
sS'gyro'
p2381
(I-4816
I3681
I-2007
tp2382
sS'accel'
p2383
(F-0.04
F-0.77
F0.09
tp2384
sg11
F1397235926.61
sa(dp2385
S'magnet'
p2386
(F-405.72
F431.48
F851.92
tp2387
sS'gyro'
p2388
(I4064
I-569
I-408
tp2389
sS'accel'
p2390
(F0.05
F-0.92
F-0.11
tp2391
sg11
F1397235926.72
sa(dp2392
S'magnet'
p2393
(F-412.16
F478.4
F821.56
tp2394
sS'gyro'
p2395
(I15808
I6502
I5685
tp2396
sS'accel'
p2397
(F0.1
F-0.94
F-0.14
tp2398
sg11
F1397235926.84
sa(dp2399
S'magnet'
p2400
(F-366.16
F550.16
F719.44
tp2401
sS'gyro'
p2402
(I21270
I-2957
I14998
tp2403
sS'accel'
p2404
(F0.02
F-0.83
F0.18
tp2405
sg11
F1397235926.96
sa(dp2406
S'magnet'
p2407
(F-290.72
F550.16
F604.44
tp2408
sS'gyro'
p2409
(I16269
I-6678
I8245
tp2410
sS'accel'
p2411
(F-0.13
F-0.64
F0.53
tp2412
sg11
F1397235927.1
sa(dp2413
S'magnet'
p2414
(F-275.08
F449.88
F561.2
tp2415
sS'gyro'
p2416
(I9434
I-3969
I3473
tp2417
sS'accel'
p2418
(F-0.29
F-0.62
F0.85
tp2419
sg11
F1397235927.22
sa(dp2420
S'magnet'
p2421
(F-274.16
F488.52
F511.52
tp2422
sS'gyro'
p2423
(I-2043
I-3332
I483
tp2424
sS'accel'
p2425
(F-0.35
F-0.64
F1.08
tp2426
sg11
F1397235927.33
sa(dp2427
S'magnet'
p2428
(F-280.6
F515.2
F536.36
tp2429
sS'gyro'
p2430
(I-16286
I910
I-4656
tp2431
sS'accel'
p2432
(F-0.32
F-0.66
F1.11
tp2433
sg11
F1397235927.47
sa(dp2434
S'magnet'
p2435
(F-308.2
F552.92
F630.2
tp2436
sS'gyro'
p2437
(I-23077
I3145
I-5033
tp2438
sS'accel'
p2439
(F-0.25
F-0.7
F0.96
tp2440
sg11
F1397235927.59
sa(dp2441
S'magnet'
p2442
(F-342.24
F529.92
F759.0
tp2443
sS'gyro'
p2444
(I-21053
I1134
I-4270
tp2445
sS'accel'
p2446
(F-0.14
F-0.73
F0.65
tp2447
sg11
F1397235927.72
sa(dp2448
S'magnet'
p2449
(F-367.08
F433.32
F853.76
tp2450
sS'gyro'
p2451
(I-20062
I15
I-4908
tp2452
sS'accel'
p2453
(F-0.04
F-0.8
F0.25
tp2454
sg11
F1397235927.84
sa(dp2455
S'magnet'
p2456
(F-364.32
F352.36
F891.48
tp2457
sS'gyro'
p2458
(I-4426
I-3587
I-2443
tp2459
sS'accel'
p2460
(F0.01
F-0.74
F-0.09
tp2461
sg11
F1397235927.98
sa(dp2462
S'magnet'
p2463
(F-374.44
F383.64
F876.76
tp2464
sS'gyro'
p2465
(I11761
I6412
I1320
tp2466
sS'accel'
p2467
(F0.08
F-0.8
F-0.28
tp2468
sg11
F1397235928.11
sa(dp2469
S'magnet'
p2470
(F-393.76
F471.04
F820.64
tp2471
sS'gyro'
p2472
(I20001
I4264
I7417
tp2473
sS'accel'
p2474
(F0.09
F-0.93
F-0.19
tp2475
sg11
F1397235928.23
sa(dp2476
S'magnet'
p2477
(F-374.44
F526.24
F783.84
tp2478
sS'gyro'
p2479
(I22074
I-5293
I11690
tp2480
sS'accel'
p2481
(F-0.06
F-0.86
F0.22
tp2482
sg11
F1397235928.35
sa(dp2483
S'magnet'
p2484
(F-308.2
F556.6
F653.2
tp2485
sS'gyro'
p2486
(I17716
I-3819
I5057
tp2487
sS'accel'
p2488
(F-0.07
F-0.61
F0.48
tp2489
sg11
F1397235928.47
sa(dp2490
S'magnet'
p2491
(F-288.88
F530.84
F555.68
tp2492
sS'gyro'
p2493
(I10507
I3204
I-261
tp2494
sS'accel'
p2495
(F-0.26
F-0.63
F0.79
tp2496
sg11
F1397235928.63
sa(dp2497
S'magnet'
p2498
(F-285.2
F495.88
F511.52
tp2499
sS'gyro'
p2500
(I-205
I-4108
I2044
tp2501
sS'accel'
p2502
(F-0.32
F-0.69
F1.04
tp2503
sg11
F1397235928.72
sa(dp2504
S'magnet'
p2505
(F-290.72
F512.44
F529.92
tp2506
sS'gyro'
p2507
(I-14762
I2311
I-4593
tp2508
sS'accel'
p2509
(F-0.32
F-0.71
F1.15
tp2510
sg11
F1397235928.87
sa(dp2511
S'magnet'
p2512
(F-322.92
F558.44
F636.64
tp2513
sS'gyro'
p2514
(I-23364
I-2555
I-6429
tp2515
sS'accel'
p2516
(F-0.22
F-0.7
F0.97
tp2517
sg11
F1397235928.98
sa(dp2518
S'magnet'
p2519
(F-365.24
F529.0
F759.0
tp2520
sS'gyro'
p2521
(I-21348
I2706
I-6144
tp2522
sS'accel'
p2523
(F-0.11
F-0.71
F0.64
tp2524
sg11
F1397235929.11
sa(dp2525
S'magnet'
p2526
(F-396.52
F445.28
F844.56
tp2527
sS'gyro'
p2528
(I-14044
I-3045
I-4253
tp2529
sS'accel'
p2530
(F0.02
F-0.72
F0.27
tp2531
sg11
F1397235929.27
sa(dp2532
S'magnet'
p2533
(F-383.64
F395.6
F874.92
tp2534
sS'gyro'
p2535
(I-4104
I-7275
I-2406
tp2536
sS'accel'
p2537
(F0.08
F-0.82
F-0.11
tp2538
sg11
F1397235929.35
sa(dp2539
S'magnet'
p2540
(F-380.88
F414.92
F862.04
tp2541
sS'gyro'
p2542
(I7947
I7202
I679
tp2543
sS'accel'
p2544
(F0.08
F-0.9
F-0.26
tp2545
sg11
F1397235929.48
sa(dp2546
S'magnet'
p2547
(F-406.64
F440.68
F845.48
tp2548
sS'gyro'
p2549
(I17987
I11392
I5809
tp2550
sS'accel'
p2551
(F0.14
F-0.9
F-0.2
tp2552
sg11
F1397235929.62
sa(dp2553
S'magnet'
p2554
(F-408.48
F530.84
F769.12
tp2555
sS'gyro'
p2556
(I21594
I-1447
I10087
tp2557
sS'accel'
p2558
(F0.06
F-0.79
F0.09
tp2559
sg11
F1397235929.74
sa(dp2560
S'magnet'
p2561
(F-352.36
F567.64
F634.8
tp2562
sS'gyro'
p2563
(I20715
I3829
I5383
tp2564
sS'accel'
p2565
(F-0.11
F-0.65
F0.52
tp2566
sg11
F1397235929.86
sa(dp2567
S'magnet'
p2568
(F-322.0
F532.68
F545.56
tp2569
sS'gyro'
p2570
(I10381
I-1134
I297
tp2571
sS'accel'
p2572
(F-0.26
F-0.67
F0.79
tp2573
sg11
F1397235929.99
sa(dp2574
S'magnet'
p2575
(F-323.84
F515.2
F509.68
tp2576
sS'gyro'
p2577
(I-109
I-2674
I-521
tp2578
sS'accel'
p2579
(F-0.3
F-0.71
F1.02
tp2580
sg11
F1397235930.11
sa(dp2581
S'magnet'
p2582
(F-349.6
F533.6
F540.04
tp2583
sS'gyro'
p2584
(I-16070
I-4956
I-3859
tp2585
sS'accel'
p2586
(F-0.31
F-0.73
F1.15
tp2587
sg11
F1397235930.23
sa(dp2588
S'magnet'
p2589
(F-384.56
F569.48
F660.56
tp2590
sS'gyro'
p2591
(I-25594
I-876
I-4572
tp2592
sS'accel'
p2593
(F-0.22
F-0.75
F0.97
tp2594
sg11
F1397235930.37
sa(dp2595
S'magnet'
p2596
(F-402.96
F507.84
F801.32
tp2597
sS'gyro'
p2598
(I-24463
I-2590
I-3963
tp2599
sS'accel'
p2600
(F-0.1
F-0.72
F0.6
tp2601
sg11
F1397235930.49
sa(dp2602
S'magnet'
p2603
(F-409.4
F417.68
F862.96
tp2604
sS'gyro'
p2605
(I-9979
I-6300
I-1733
tp2606
sS'accel'
p2607
(F0.08
F-0.73
F0.23
tp2608
sg11
F1397235930.63
sa(dp2609
S'magnet'
p2610
(F-373.52
F401.12
F868.48
tp2611
sS'gyro'
p2612
(I1797
I-11842
I2807
tp2613
sS'accel'
p2614
(F-0.02
F-0.85
F-0.12
tp2615
sg11
F1397235930.75
sa(dp2616
S'magnet'
p2617
(F-323.84
F420.44
F847.32
tp2618
sS'gyro'
p2619
(I9408
I6293
I-1057
tp2620
sS'accel'
p2621
(F-0.04
F-0.96
F-0.22
tp2622
sg11
F1397235930.87
sa(dp2623
S'magnet'
p2624
(F-354.2
F483.0
F816.04
tp2625
sS'gyro'
p2626
(I16799
I4547
I3144
tp2627
sS'accel'
p2628
(F-0.03
F-0.85
F-0.06
tp2629
sg11
F1397235931.01
sa(dp2630
S'magnet'
p2631
(F-344.08
F548.32
F724.96
tp2632
sS'gyro'
p2633
(I26630
I364
I10267
tp2634
sS'accel'
p2635
(F-0.09
F-0.81
F0.25
tp2636
sg11
F1397235931.14
sa(dp2637
S'magnet'
p2638
(F-286.12
F542.8
F588.8
tp2639
sS'gyro'
p2640
(I20909
I-2815
I3856
tp2641
sS'accel'
p2642
(F-0.25
F-0.65
F0.74
tp2643
sg11
F1397235931.24
sa(dp2644
S'magnet'
p2645
(F449.88
F0.92
F2508.84
tp2646
sS'gyro'
p2647
(I4174
I2902
I-1125
tp2648
sS'accel'
p2649
(F-0.36
F-0.66
F1.09
tp2650
sg11
F1397235931.39
sa(dp2651
S'magnet'
p2652
(F-294.4
F508.76
F515.2
tp2653
sS'gyro'
p2654
(I-16069
I-2294
I-3084
tp2655
sS'accel'
p2656
(F-0.37
F-0.64
F1.19
tp2657
sg11
F1397235931.51
sa(dp2658
S'magnet'
p2659
(F-334.88
F572.24
F630.2
tp2660
sS'gyro'
p2661
(I-23819
I4924
I-8453
tp2662
sS'accel'
p2663
(F-0.26
F-0.64
F1.01
tp2664
sg11
F1397235931.65
sa(dp2665
S'magnet'
p2666
(F-391.92
F532.68
F765.44
tp2667
sS'gyro'
p2668
(I-22134
I935
I-7774
tp2669
sS'accel'
p2670
(F-0.13
F-0.61
F0.7
tp2671
sg11
F1397235931.77
sa(dp2672
S'magnet'
p2673
(F-434.24
F446.2
F842.72
tp2674
sS'gyro'
p2675
(I-15964
I-386
I-5956
tp2676
sS'accel'
p2677
(F-0.01
F-0.69
F0.37
tp2678
sg11
F1397235931.88
sa(dp2679
S'magnet'
p2680
(F-437.0
F402.04
F864.8
tp2681
sS'gyro'
p2682
(I-1290
I-5687
I-1955
tp2683
sS'accel'
p2684
(F0.12
F-0.82
F-0.14
tp2685
sg11
F1397235932.03
sa(dp2686
S'magnet'
p2687
(F-426.88
F411.24
F867.56
tp2688
sS'gyro'
p2689
(I19925
I11478
I9847
tp2690
sS'accel'
p2691
(F0.13
F-0.81
F-0.2
tp2692
sg11
F1397235932.15
sa(dp2693
S'magnet'
p2694
(F-420.44
F531.76
F759.0
tp2695
sS'gyro'
p2696
(I31640
I-6009
I18192
tp2697
sS'accel'
p2698
(F0.02
F-0.71
F0.19
tp2699
sg11
F1397235932.27
sa(dp2700
S'magnet'
p2701
(F-314.64
F555.68
F589.72
tp2702
sS'gyro'
p2703
(I29662
I-13714
I10989
tp2704
sS'accel'
p2705
(F-0.13
F-0.55
F0.88
tp2706
sg11
F1397235932.39
sa(dp2707
S'magnet'
p2708
(F-285.2
F468.28
F487.6
tp2709
sS'gyro'
p2710
(I871
I11932
I6612
tp2711
sS'accel'
p2712
(F-0.26
F-0.6
F1.21
tp2713
sg11
F1397235932.52
sa(dp2714
S'magnet'
p2715
(F-268.64
F492.2
F516.12
tp2716
sS'gyro'
p2717
(I-22279
I-8303
I-5154
tp2718
sS'accel'
p2719
(F-0.39
F-0.73
F1.28
tp2720
sg11
F1397235932.65
sa(dp2721
S'magnet'
p2722
(F-321.08
F561.2
F660.56
tp2723
sS'gyro'
p2724
(I-29206
I3986
I-9150
tp2725
sS'accel'
p2726
(F-0.3
F-0.65
F1.01
tp2727
sg11
F1397235932.77
sa(dp2728
S'magnet'
p2729
(F-383.64
F506.92
F802.24
tp2730
sS'gyro'
p2731
(I-21534
I4653
I-8495
tp2732
sS'accel'
p2733
(F-0.14
F-0.6
F0.56
tp2734
sg11
F1397235932.89
sa(dp2735
S'magnet'
p2736
(F-431.48
F430.56
F859.28
tp2737
sS'gyro'
p2738
(I-9616
I2046
I-4445
tp2739
sS'accel'
p2740
(F0.01
F-0.68
F0.17
tp2741
sg11
F1397235933.03
sa(dp2742
S'magnet'
p2743
(F-426.88
F414.0
F859.28
tp2744
sS'gyro'
p2745
(I5375
I1162
I-1565
tp2746
sS'accel'
p2747
(F0.14
F-0.84
F-0.2
tp2748
sg11
F1397235933.16
sa(dp2749
S'magnet'
p2750
(F-443.44
F439.76
F839.96
tp2751
sS'gyro'
p2752
(I18200
I5590
I7016
tp2753
sS'accel'
p2754
(F0.15
F-0.81
F-0.12
tp2755
sg11
F1397235933.28
sa(dp2756
S'magnet'
p2757
(F-425.96
F539.12
F757.16
tp2758
sS'gyro'
p2759
(I26833
I-1442
I14088
tp2760
sS'accel'
p2761
(F0.12
F-0.76
F0.08
tp2762
sg11
F1397235933.41
sa(dp2763
S'magnet'
p2764
(F-337.64
F561.2
F600.76
tp2765
sS'gyro'
p2766
(I22147
I-2958
I10642
tp2767
sS'accel'
p2768
(F-0.05
F-0.54
F0.59
tp2769
sg11
F1397235933.53
sa(dp2770
S'magnet'
p2771
(F-299.0
F497.72
F509.68
tp2772
sS'gyro'
p2773
(I2412
I-1942
I3028
tp2774
sS'accel'
p2775
(F-0.29
F-0.69
F1.02
tp2776
sg11
F1397235933.66
sa(dp2777
S'magnet'
p2778
(F-299.0
F513.36
F534.52
tp2779
sS'gyro'
p2780
(I-16656
I-4957
I-4951
tp2781
sS'accel'
p2782
(F-0.29
F-0.68
F1.12
tp2783
sg11
F1397235933.8
sa(dp2784
S'magnet'
p2785
(F-351.44
F564.88
F628.36
tp2786
sS'gyro'
p2787
(I-22846
I4650
I-9939
tp2788
sS'accel'
p2789
(F-0.19
F-0.66
F0.94
tp2790
sg11
F1397235933.92
sa(dp2791
S'magnet'
p2792
(F-417.68
F545.56
F754.4
tp2793
sS'gyro'
p2794
(I-20838
I1674
I-8398
tp2795
sS'accel'
p2796
(F-0.05
F-0.69
F0.59
tp2797
sg11
F1397235934.04
sa(dp2798
S'magnet'
p2799
(F-456.32
F455.4
F835.36
tp2800
sS'gyro'
p2801
(I-13526
I-1961
I-4634
tp2802
sS'accel'
p2803
(F0.16
F-0.78
F0.21
tp2804
sg11
F1397235934.16
sa(dp2805
S'magnet'
p2806
(F-446.2
F438.84
F853.76
tp2807
sS'gyro'
p2808
(I4100
I4085
I2374
tp2809
sS'accel'
p2810
(F0.19
F-0.84
F-0.04
tp2811
sg11
F1397235934.28
sa(dp2812
S'magnet'
p2813
(F-448.04
F448.96
F833.52
tp2814
sS'gyro'
p2815
(I16615
I744
I6320
tp2816
sS'accel'
p2817
(F0.21
F-0.78
F-0.01
tp2818
sg11
F1397235934.4
sa(dp2819
S'magnet'
p2820
(F-420.44
F531.76
F759.92
tp2821
sS'gyro'
p2822
(I25573
I-2017
I11876
tp2823
sS'accel'
p2824
(F0.13
F-0.8
F0.16
tp2825
sg11
F1397235934.54
sa(dp2826
S'magnet'
p2827
(F-343.16
F560.28
F609.04
tp2828
sS'gyro'
p2829
(I19415
I-5686
I9673
tp2830
sS'accel'
p2831
(F-0.08
F-0.67
F0.77
tp2832
sg11
F1397235934.66
sa(dp2833
S'magnet'
p2834
(F-312.8
F524.4
F530.84
tp2835
sS'gyro'
p2836
(I-101
I-853
I1402
tp2837
sS'accel'
p2838
(F-0.3
F-0.84
F1.06
tp2839
sg11
F1397235934.78
sa(dp2840
S'magnet'
p2841
(F-310.96
F537.28
F563.96
tp2842
sS'gyro'
p2843
(I-17779
I-2185
I-4344
tp2844
sS'accel'
p2845
(F-0.28
F-0.84
F1.06
tp2846
sg11
F1397235934.94
sa(dp2847
S'magnet'
p2848
(F-349.6
F561.2
F678.04
tp2849
sS'gyro'
p2850
(I-20535
I5409
I-6892
tp2851
sS'accel'
p2852
(F-0.2
F-0.8
F0.84
tp2853
sg11
F1397235935.04
sa(dp2854
S'magnet'
p2855
(F-398.36
F519.8
F791.2
tp2856
sS'gyro'
p2857
(I-18118
I2078
I-3792
tp2858
sS'accel'
p2859
(F-0.06
F-0.8
F0.51
tp2860
sg11
F1397235935.18
sa(dp2861
S'magnet'
p2862
(F-392.84
F448.04
F845.48
tp2863
sS'gyro'
p2864
(I-8396
I-5604
I-887
tp2865
sS'accel'
p2866
(F0.01
F-0.83
F0.16
tp2867
sg11
F1397235935.3
sa(dp2868
S'magnet'
p2869
(F-391.92
F435.16
F854.68
tp2870
sS'gyro'
p2871
(I5172
I5510
I1414
tp2872
sS'accel'
p2873
(F0.03
F-0.9
F-0.06
tp2874
sg11
F1397235935.43
sa(dp2875
S'magnet'
p2876
(F-399.28
F460.92
F831.68
tp2877
sS'gyro'
p2878
(I11606
I2564
I6509
tp2879
sS'accel'
p2880
(F0.01
F-0.91
F-0.06
tp2881
sg11
F1397235935.55
sa(dp2882
S'magnet'
p2883
(F-377.2
F511.52
F784.76
tp2884
sS'gyro'
p2885
(I19627
I293
I14266
tp2886
sS'accel'
p2887
(F-0.03
F-0.83
F0.06
tp2888
sg11
F1397235935.67
sa(dp2889
S'magnet'
p2890
(F-288.88
F542.8
F663.32
tp2891
sS'gyro'
p2892
(I23032
I-14031
I11623
tp2893
sS'accel'
p2894
(F-0.24
F-0.62
F0.58
tp2895
sg11
F1397235935.79
sa(dp2896
S'magnet'
p2897
(F-245.64
F489.44
F548.32
tp2898
sS'gyro'
p2899
(I10169
I-2657
I4167
tp2900
sS'accel'
p2901
(F-0.4
F-0.59
F0.91
tp2902
sg11
F1397235935.91
sa(dp2903
S'magnet'
p2904
(F-239.2
F453.56
F517.96
tp2905
sS'gyro'
p2906
(I-8755
I-3577
I1099
tp2907
sS'accel'
p2908
(F-0.51
F-0.7
F1.02
tp2909
sg11
F1397235936.06
sa(dp2910
S'magnet'
p2911
(F-248.4
F503.24
F577.76
tp2912
sS'gyro'
p2913
(I-19025
I4706
I-8951
tp2914
sS'accel'
p2915
(F-0.45
F-0.65
F1.04
tp2916
sg11
F1397235936.18
sa(dp2917
S'magnet'
p2918
(F-306.36
F542.8
F702.88
tp2919
sS'gyro'
p2920
(I-22845
I1245
I-11217
tp2921
sS'accel'
p2922
(F-0.32
F-0.66
F0.86
tp2923
sg11
F1397235936.31
sa(dp2924
S'magnet'
p2925
(F-372.6
F486.68
F812.36
tp2926
sS'gyro'
p2927
(I-19450
I2456
I-7829
tp2928
sS'accel'
p2929
(F-0.16
F-0.64
F0.49
tp2930
sg11
F1397235936.44
sa(dp2931
S'magnet'
p2932
(F-399.28
F418.6
F857.44
tp2933
sS'gyro'
p2934
(I-5391
I-1645
I-3252
tp2935
sS'accel'
p2936
(F0.01
F-0.74
F0.05
tp2937
sg11
F1397235936.56
sa(dp2938
S'magnet'
p2939
(F-391.92
F427.8
F855.6
tp2940
sS'gyro'
p2941
(I6643
I-45
I-173
tp2942
sS'accel'
p2943
(F0.04
F-0.85
F-0.15
tp2944
sg11
F1397235936.68
sa(dp2945
S'magnet'
p2946
(F-403.88
F462.76
F833.52
tp2947
sS'gyro'
p2948
(I15039
I4290
I1982
tp2949
sS'accel'
p2950
(F0.07
F-0.9
F-0.09
tp2951
sg11
F1397235936.82
sa(dp2952
S'magnet'
p2953
(F-405.72
F530.84
F759.0
tp2954
sS'gyro'
p2955
(I21235
I-835
I10288
tp2956
sS'accel'
p2957
(F0.05
F-0.86
F0.1
tp2958
sg11
F1397235936.95
sa(dp2959
S'magnet'
p2960
(F-336.72
F559.36
F644.92
tp2961
sS'gyro'
p2962
(I22941
I-4776
I9134
tp2963
sS'accel'
p2964
(F-0.03
F-0.68
F0.53
tp2965
sg11
F1397235937.07
sa(dp2966
S'magnet'
p2967
(F-305.44
F504.16
F517.96
tp2968
sS'gyro'
p2969
(I14215
I-4003
I5432
tp2970
sS'accel'
p2971
(F-0.16
F-0.52
F0.84
tp2972
sg11
F1397235937.19
sa(dp2973
S'magnet'
p2974
(F-270.48
F441.6
F483.0
tp2975
sS'gyro'
p2976
(I5344
I5466
I4736
tp2977
sS'accel'
p2978
(F-0.26
F-0.42
F1.09
tp2979
sg11
F1397235937.33
sa(dp2980
S'magnet'
p2981
(F-264.96
F437.92
F483.92
tp2982
sS'gyro'
p2983
(I-9103
I-3913
I-2719
tp2984
sS'accel'
p2985
(F-0.34
F-0.46
F1.19
tp2986
sg11
F1397235937.45
sa(dp2987
S'magnet'
p2988
(F-294.4
F520.72
F542.8
tp2989
sS'gyro'
p2990
(I-20224
I1354
I-8871
tp2991
sS'accel'
p2992
(F-0.28
F-0.5
F1.14
tp2993
sg11
F1397235937.56
sa(dp2994
S'magnet'
p2995
(F-350.52
F564.88
F667.92
tp2996
sS'gyro'
p2997
(I-24791
I-1226
I-8999
tp2998
sS'accel'
p2999
(F-0.17
F-0.61
F0.86
tp3000
sg11
F1397235937.69
sa(dp3001
S'magnet'
p3002
(F-397.44
F517.96
F788.44
tp3003
sS'gyro'
p3004
(I-20101
I3101
I-6560
tp3005
sS'accel'
p3006
(F-0.06
F-0.68
F0.54
tp3007
sg11
F1397235937.84
sa(dp3008
S'magnet'
p3009
(F-416.76
F467.36
F830.76
tp3010
sS'gyro'
p3011
(I-8640
I-4455
I-3641
tp3012
sS'accel'
p3013
(F0.07
F-0.76
F0.1
tp3014
sg11
F1397235937.96
sa(dp3015
S'magnet'
p3016
(F-418.6
F428.72
F856.52
tp3017
sS'gyro'
p3018
(I5781
I1437
I956
tp3019
sS'accel'
p3020
(F0.15
F-0.84
F-0.06
tp3021
sg11
F1397235938.08
sa(dp3022
S'magnet'
p3023
(F-419.52
F476.56
F829.84
tp3024
sS'gyro'
p3025
(I12498
I276
I5883
tp3026
sS'accel'
p3027
(F0.15
F-0.89
F-0.0
tp3028
sg11
F1397235938.21
sa(dp3029
S'magnet'
p3030
(F-380.88
F528.08
F756.24
tp3031
sS'gyro'
p3032
(I19385
I1915
I12121
tp3033
sS'accel'
p3034
(F0.08
F-0.9
F0.07
tp3035
sg11
F1397235938.33
sa(dp3036
S'magnet'
p3037
(F-310.04
F548.32
F641.24
tp3038
sS'gyro'
p3039
(I23860
I-3637
I10949
tp3040
sS'accel'
p3041
(F-0.07
F-0.64
F0.43
tp3042
sg11
F1397235938.45
sa(dp3043
S'magnet'
p3044
(F-276.92
F504.16
F541.88
tp3045
sS'gyro'
p3046
(I14366
I4299
I1313
tp3047
sS'accel'
p3048
(F-0.25
F-0.6
F0.76
tp3049
sg11
F1397235938.56
sa(dp3050
S'magnet'
p3051
(F-268.64
F466.44
F507.84
tp3052
sS'gyro'
p3053
(I403
I-4747
I4260
tp3054
sS'accel'
p3055
(F-0.42
F-0.56
F0.96
tp3056
sg11
F1397235938.69
sa(dp3057
S'magnet'
p3058
(F-258.52
F485.76
F534.52
tp3059
sS'gyro'
p3060
(I-9859
I3488
I-3733
tp3061
sS'accel'
p3062
(F-0.41
F-0.59
F1.03
tp3063
sg11
F1397235938.84
sa(dp3064
S'magnet'
p3065
(F-273.24
F511.52
F560.28
tp3066
sS'gyro'
p3067
(I-19501
I-1526
I-8801
tp3068
sS'accel'
p3069
(F-0.41
F-0.62
F0.98
tp3070
sg11
F1397235938.93
sa(dp3071
S'magnet'
p3072
(F-326.6
F549.24
F669.76
tp3073
sS'gyro'
p3074
(I-21452
I1652
I-9032
tp3075
sS'accel'
p3076
(F-0.29
F-0.68
F0.7
tp3077
sg11
F1397235939.07
sa(dp3078
S'magnet'
p3079
(F-381.8
F515.2
F773.72
tp3080
sS'gyro'
p3081
(I-15085
I-3654
I-5936
tp3082
sS'accel'
p3083
(F-0.15
F-0.73
F0.42
tp3084
sg11
F1397235939.22
sa(dp3085
S'magnet'
p3086
(F-395.6
F458.16
F836.28
tp3087
sS'gyro'
p3088
(I-3331
I-3174
I-2761
tp3089
sS'accel'
p3090
(F-0.06
F-0.87
F0.1
tp3091
sg11
F1397235939.34
sa(dp3092
S'magnet'
p3093
(F-405.72
F458.16
F837.2
tp3094
sS'gyro'
p3095
(I7592
I4417
I260
tp3096
sS'accel'
p3097
(F0.03
F-0.87
F-0.03
tp3098
sg11
F1397235939.46
sa(dp3099
S'magnet'
p3100
(F-414.0
F515.2
F787.52
tp3101
sS'gyro'
p3102
(I15692
I2668
I8602
tp3103
sS'accel'
p3104
(F0.04
F-0.8
F0.07
tp3105
sg11
F1397235939.57
sa(dp3106
S'magnet'
p3107
(F-341.32
F549.24
F678.04
tp3108
sS'gyro'
p3109
(I26824
I6953
I16774
tp3110
sS'accel'
p3111
(F-0.2
F-0.72
F0.64
tp3112
sg11
F1397235939.69
sa(dp3113
S'magnet'
p3114
(F-278.76
F522.56
F603.52
tp3115
sS'gyro'
p3116
(I7271
I-3265
I6111
tp3117
sS'accel'
p3118
(F-0.28
F-0.88
F0.73
tp3119
sg11
F1397235939.83
sa(dp3120
S'magnet'
p3121
(F-270.48
F515.2
F568.56
tp3122
sS'gyro'
p3123
(I-1475
I3313
I-1286
tp3124
sS'accel'
p3125
(F-0.49
F-0.8
F0.9
tp3126
sg11
F1397235939.94
sa(dp3127
S'magnet'
p3128
(F-293.48
F536.36
F612.72
tp3129
sS'gyro'
p3130
(I-13728
I-5268
I-5717
tp3131
sS'accel'
p3132
(F-0.44
F-0.79
F0.89
tp3133
sg11
F1397235940.07
sa(dp3134
S'magnet'
p3135
(F-316.48
F550.16
F655.04
tp3136
sS'gyro'
p3137
(I-19013
I-1706
I-5471
tp3138
sS'accel'
p3139
(F-0.33
F-0.79
F0.7
tp3140
sg11
F1397235940.21
sa(dp3141
S'magnet'
p3142
(F-345.0
F521.64
F759.0
tp3143
sS'gyro'
p3144
(I-12776
I-3011
I-2807
tp3145
sS'accel'
p3146
(F-0.2
F-0.78
F0.43
tp3147
sg11
F1397235940.33
sa(dp3148
S'magnet'
p3149
(F-345.92
F497.72
F801.32
tp3150
sS'gyro'
p3151
(I1375
I2218
I2646
tp3152
sS'accel'
p3153
(F-0.19
F-0.79
F0.21
tp3154
sg11
F1397235940.48
sa(dp3155
S'magnet'
p3156
(F-346.84
F495.88
F785.68
tp3157
sS'gyro'
p3158
(I8933
I12103
I10361
tp3159
sS'accel'
p3160
(F-0.21
F-0.93
F0.12
tp3161
sg11
F1397235940.6
sa(dp3162
S'magnet'
p3163
(F-319.24
F504.16
F760.84
tp3164
sS'gyro'
p3165
(I6169
I15340
I15691
tp3166
sS'accel'
p3167
(F-0.35
F-0.98
F0.07
tp3168
sg11
F1397235940.72
sa(dp3169
S'magnet'
p3170
(F-285.2
F494.96
F770.04
tp3171
sS'gyro'
p3172
(I-216
I16945
I9912
tp3173
sS'accel'
p3174
(F-0.56
F-0.92
F0.09
tp3175
sg11
F1397235940.84
sa(dp3176
S'magnet'
p3177
(F-294.4
F458.16
F819.72
tp3178
sS'gyro'
p3179
(I-7585
I20839
I11005
tp3180
sS'accel'
p3181
(F-0.5
F-0.73
F-0.09
tp3182
sg11
F1397235940.97
sa(dp3183
S'magnet'
p3184
(F-319.24
F407.56
F870.32
tp3185
sS'gyro'
p3186
(I-8794
I14439
I6320
tp3187
sS'accel'
p3188
(F-0.58
F-0.41
F-0.23
tp3189
sg11
F1397235941.1
sa(dp3190
S'magnet'
p3191
(F-351.44
F359.72
F908.04
tp3192
sS'gyro'
p3193
(I-5032
I6145
I2160
tp3194
sS'accel'
p3195
(F-0.53
F-0.26
F-0.45
tp3196
sg11
F1397235941.21
sa(dp3197
S'magnet'
p3198
(F-358.8
F347.76
F903.44
tp3199
sS'gyro'
p3200
(I-541
I1334
I2507
tp3201
sS'accel'
p3202
(F-0.51
F-0.17
F-0.57
tp3203
sg11
F1397235941.34
sa(dp3204
S'magnet'
p3205
(F-356.04
F345.92
F902.52
tp3206
sS'gyro'
p3207
(I217
I430
I1165
tp3208
sS'accel'
p3209
(F-0.5
F-0.09
F-0.65
tp3210
sg11
F1397235941.48
sa(dp3211
S'magnet'
p3212
(F-358.8
F364.32
F902.52
tp3213
sS'gyro'
p3214
(I-1049
I1921
I-187
tp3215
sS'accel'
p3216
(F-0.5
F-0.06
F-0.69
tp3217
sg11
F1397235941.61
sa(dp3218
S'magnet'
p3219
(F-371.68
F355.12
F905.28
tp3220
sS'gyro'
p3221
(I-165
I126
I-478
tp3222
sS'accel'
p3223
(F-0.48
F-0.08
F-0.71
tp3224
sg11
F1397235941.73
sa(dp3225
S'magnet'
p3226
(F-380.88
F362.48
F906.2
tp3227
sS'gyro'
p3228
(I558
I-4979
I-279
tp3229
sS'accel'
p3230
(F-0.56
F-0.02
F-0.66
tp3231
sg11
F1397235941.84
sa(dp3232
S'magnet'
p3233
(F-360.64
F369.84
F903.44
tp3234
sS'gyro'
p3235
(I663
I-4204
I661
tp3236
sS'accel'
p3237
(F-0.53
F-0.05
F-0.67
tp3238
sg11
F1397235941.95
sa(dp3239
S'magnet'
p3240
(F-325.68
F372.6
F897.0
tp3241
sS'gyro'
p3242
(I443
I-8917
I294
tp3243
sS'accel'
p3244
(F-0.62
F-0.04
F-0.65
tp3245
sg11
F1397235942.09
sa(dp3246
S'magnet'
p3247
(F-307.28
F371.68
F894.24
tp3248
sS'gyro'
p3249
(I853
I-2334
I1096
tp3250
sS'accel'
p3251
(F-0.59
F-0.12
F-0.66
tp3252
sg11
F1397235942.24
sa(dp3253
S'magnet'
p3254
(F-277.84
F382.72
F888.72
tp3255
sS'gyro'
p3256
(I1006
I-1030
I972
tp3257
sS'accel'
p3258
(F-0.64
F-0.07
F-0.6
tp3259
sg11
F1397235942.33
sa(dp3260
S'magnet'
p3261
(F-274.16
F380.88
F878.6
tp3262
sS'gyro'
p3263
(I1083
I-1331
I533
tp3264
sS'accel'
p3265
(F-0.66
F-0.07
F-0.58
tp3266
sg11
F1397235942.47
sa(dp3267
S'magnet'
p3268
(F-261.28
F385.48
F878.6
tp3269
sS'gyro'
p3270
(I370
I-2768
I117
tp3271
sS'accel'
p3272
(F-0.69
F-0.08
F-0.55
tp3273
sg11
F1397235942.58
sa(dp3274
S'magnet'
p3275
(F-252.08
F384.56
F872.16
tp3276
sS'gyro'
p3277
(I163
I-920
I730
tp3278
sS'accel'
p3279
(F-0.7
F-0.1
F-0.51
tp3280
sg11
F1397235942.73
sa(dp3281
S'magnet'
p3282
(F-242.88
F388.24
F867.56
tp3283
sS'gyro'
p3284
(I-128
I-1413
I620
tp3285
sS'accel'
p3286
(F-0.72
F-0.09
F-0.48
tp3287
sg11
F1397235942.84
sa(dp3288
S'magnet'
p3289
(F-236.44
F386.4
F866.64
tp3290
sS'gyro'
p3291
(I-161
I-884
I103
tp3292
sS'accel'
p3293
(F-0.73
F-0.08
F-0.47
tp3294
sg11
F1397235942.96
sa(dp3295
S'magnet'
p3296
(F-230.0
F380.88
F863.88
tp3297
sS'gyro'
p3298
(I-159
I-1241
I499
tp3299
sS'accel'
p3300
(F-0.75
F-0.07
F-0.47
tp3301
sg11
F1397235943.09
sa(dp3302
S'magnet'
p3303
(F-224.48
F375.36
F860.2
tp3304
sS'gyro'
p3305
(I-350
I-2566
I218
tp3306
sS'accel'
p3307
(F-0.74
F-0.06
F-0.43
tp3308
sg11
F1397235943.2
sa(dp3309
S'magnet'
p3310
(F-217.12
F386.4
F855.6
tp3311
sS'gyro'
p3312
(I-1521
I-4841
I-2495
tp3313
sS'accel'
p3314
(F-0.79
F0.02
F-0.32
tp3315
sg11
F1397235943.36
sa(dp3316
S'magnet'
p3317
(F-208.84
F365.24
F856.52
tp3318
sS'gyro'
p3319
(I-8037
I-4701
I827
tp3320
sS'accel'
p3321
(F-0.74
F-0.04
F-0.31
tp3322
sg11
F1397235943.48
sa(dp3323
S'magnet'
p3324
(F-188.6
F304.52
F851.92
tp3325
sS'gyro'
p3326
(I-8912
I-1069
I7126
tp3327
sS'accel'
p3328
(F-0.72
F-0.01
F-0.27
tp3329
sg11
F1397235943.6
sa(dp3330
S'magnet'
p3331
(F-176.64
F228.16
F846.4
tp3332
sS'gyro'
p3333
(I-5265
I-2232
I11402
tp3334
sS'accel'
p3335
(F-0.77
F0.07
F-0.27
tp3336
sg11
F1397235943.73
sa(dp3337
S'magnet'
p3338
(F-190.44
F155.48
F828.92
tp3339
sS'gyro'
p3340
(I-4234
I-3247
I7309
tp3341
sS'accel'
p3342
(F-0.81
F0.29
F-0.24
tp3343
sg11
F1397235943.85
sa(dp3344
S'magnet'
p3345
(F-204.24
F123.28
F823.4
tp3346
sS'gyro'
p3347
(I-1072
I-1793
I2513
tp3348
sS'accel'
p3349
(F-0.78
F0.48
F-0.23
tp3350
sg11
F1397235943.97
sa(dp3351
S'magnet'
p3352
(F-185.84
F122.36
F805.0
tp3353
sS'gyro'
p3354
(I-2593
I643
I1189
tp3355
sS'accel'
p3356
(F-0.77
F0.49
F-0.12
tp3357
sg11
F1397235944.08
sa(dp3358
S'magnet'
p3359
(F-186.76
F115.0
F797.64
tp3360
sS'gyro'
p3361
(I1422
I-59
I-721
tp3362
sS'accel'
p3363
(F-0.72
F0.56
F-0.05
tp3364
sg11
F1397235944.22
sa(dp3365
S'magnet'
p3366
(F-192.28
F119.6
F808.68
tp3367
sS'gyro'
p3368
(I-1082
I3003
I-1358
tp3369
sS'accel'
p3370
(F-0.7
F0.59
F-0.02
tp3371
sg11
F1397235944.34
sa(dp3372
S'magnet'
p3373
(F-179.4
F126.96
F803.16
tp3374
sS'gyro'
p3375
(I-5065
I-8049
I-7445
tp3376
sS'accel'
p3377
(F-0.8
F0.42
F0.09
tp3378
sg11
F1397235944.46
sa(dp3379
S'magnet'
p3380
(F-142.6
F140.76
F775.56
tp3381
sS'gyro'
p3382
(I-10911
I2528
I-2777
tp3383
sS'accel'
p3384
(F-0.75
F0.38
F0.13
tp3385
sg11
F1397235944.61
sa(dp3386
S'magnet'
p3387
(F-160.08
F111.32
F784.76
tp3388
sS'gyro'
p3389
(I-3529
I5608
I1373
tp3390
sS'accel'
p3391
(F-0.7
F0.49
F-0.03
tp3392
sg11
F1397235944.72
sa(dp3393
S'magnet'
p3394
(F-181.24
F92.0
F792.12
tp3395
sS'gyro'
p3396
(I-3670
I3304
I1662
tp3397
sS'accel'
p3398
(F-0.71
F0.41
F0.05
tp3399
sg11
F1397235944.84
sa(dp3400
S'magnet'
p3401
(F-192.28
F67.16
F788.44
tp3402
sS'gyro'
p3403
(I-947
I-138
I-666
tp3404
sS'accel'
p3405
(F-0.76
F0.37
F0.1
tp3406
sg11
F1397235944.98
sa(dp3407
S'magnet'
p3408
(F-194.12
F65.32
F795.8
tp3409
sS'gyro'
p3410
(I-1349
I2019
I-2991
tp3411
sS'accel'
p3412
(F-0.81
F0.28
F0.11
tp3413
sg11
F1397235945.1
sa(dp3414
S'magnet'
p3415
(F-214.36
F60.72
F813.28
tp3416
sS'gyro'
p3417
(I-1720
I6139
I972
tp3418
sS'accel'
p3419
(F-0.71
F0.41
F0.02
tp3420
sg11
F1397235945.21
sa(dp3421
S'magnet'
p3422
(F-221.72
F61.64
F811.44
tp3423
sS'gyro'
p3424
(I-654
I1558
I754
tp3425
sS'accel'
p3426
(F-0.74
F0.39
F0.01
tp3427
sg11
F1397235945.33
sa(dp3428
S'magnet'
p3429
(F-230.92
F55.2
F815.12
tp3430
sS'gyro'
p3431
(I419
I100
I142
tp3432
sS'accel'
p3433
(F-0.78
F0.37
F-0.03
tp3434
sg11
F1397235945.47
sa(dp3435
S'magnet'
p3436
(F-231.84
F69.0
F816.04
tp3437
sS'gyro'
p3438
(I-390
I-445
I86
tp3439
sS'accel'
p3440
(F-0.77
F0.37
F-0.05
tp3441
sg11
F1397235945.59
sa(dp3442
S'magnet'
p3443
(F-232.76
F57.96
F818.8
tp3444
sS'gyro'
p3445
(I-282
I-403
I274
tp3446
sS'accel'
p3447
(F-0.78
F0.38
F-0.06
tp3448
sg11
F1397235945.69
sa(dp3449
S'magnet'
p3450
(F-230.92
F64.4
F817.88
tp3451
sS'gyro'
p3452
(I-20
I-182
I380
tp3453
sS'accel'
p3454
(F-0.77
F0.38
F-0.06
tp3455
sg11
F1397235945.82
sa(dp3456
S'magnet'
p3457
(F-235.52
F58.88
F816.96
tp3458
sS'gyro'
p3459
(I271
I319
I-93
tp3460
sS'accel'
p3461
(F-0.8
F0.37
F-0.07
tp3462
sg11
F1397235945.93
sa(dp3463
S'magnet'
p3464
(F-236.44
F59.8
F816.96
tp3465
sS'gyro'
p3466
(I125
I-1080
I-108
tp3467
sS'accel'
p3468
(F-0.75
F0.36
F-0.02
tp3469
sg11
F1397235946.07
sasS'username'
p3470
Vmorgan
p3471
sS'weight'
p3472
V20
p3473
sS'exercise'
p3474
VBicep
p3475
s.