(dp0
S'count'
p1
I4
sS'raw'
p2
(lp3
(dp4
S'magnet'
p5
(F-235.52
F455.4
F305.44
tp6
sS'gyro'
p7
(I-22
I-8
I84
tp8
sS'accel'
p9
(F0.33
F-0.03
F-0.88
tp10
sS'time'
p11
F1397237096.8
sa(dp12
S'magnet'
p13
(F-234.6
F455.4
F303.6
tp14
sS'gyro'
p15
(I-63
I-28
I92
tp16
sS'accel'
p17
(F0.32
F-0.03
F-0.88
tp18
sg11
F1397237096.81
sa(dp19
S'magnet'
p20
(F-233.68
F457.24
F304.52
tp21
sS'gyro'
p22
(I-132
I-13
I80
tp23
sS'accel'
p24
(F0.33
F-0.02
F-0.88
tp25
sg11
F1397237096.89
sa(dp26
S'magnet'
p27
(F-230.92
F454.48
F304.52
tp28
sS'gyro'
p29
(I-109
I6
I100
tp30
sS'accel'
p31
(F0.32
F-0.02
F-0.87
tp32
sg11
F1397237096.99
sa(dp33
S'magnet'
p34
(F-231.84
F454.48
F306.36
tp35
sS'gyro'
p36
(I-3575
I-1654
I-709
tp37
sS'accel'
p38
(F0.34
F-0.03
F-0.84
tp39
sg11
F1397237097.13
sa(dp40
S'magnet'
p41
(F-230.0
F445.28
F313.72
tp42
sS'gyro'
p43
(I28
I-680
I543
tp44
sS'accel'
p45
(F0.26
F-0.04
F-0.83
tp46
sg11
F1397237097.24
sa(dp47
S'magnet'
p48
(F-218.96
F477.48
F299.92
tp49
sS'gyro'
p50
(I15159
I-2049
I7635
tp51
sS'accel'
p52
(F0.31
F-0.16
F-0.85
tp53
sg11
F1397237097.39
sa(dp54
S'magnet'
p55
(F-144.44
F622.84
F195.96
tp56
sS'gyro'
p57
(I18581
I-655
I6200
tp58
sS'accel'
p59
(F0.36
F-0.23
F-0.9
tp60
sg11
F1397237097.52
sa(dp61
S'magnet'
p62
(F-104.88
F623.76
F207.0
tp63
sS'gyro'
p64
(I-10457
I-3978
I-1080
tp65
sS'accel'
p66
(F0.24
F-0.3
F-0.82
tp67
sg11
F1397237097.63
sa(dp68
S'magnet'
p69
(F-91.08
F583.28
F260.36
tp70
sS'gyro'
p71
(I-4405
I123
I-710
tp72
sS'accel'
p73
(F0.22
F-0.26
F-0.89
tp74
sg11
F1397237097.77
sa(dp75
S'magnet'
p76
(F-97.52
F552.0
F292.56
tp77
sS'gyro'
p78
(I-3788
I1092
I-335
tp79
sS'accel'
p80
(F0.16
F-0.22
F-0.85
tp81
sg11
F1397237097.88
sa(dp82
S'magnet'
p83
(F-110.4
F513.36
F312.8
tp84
sS'gyro'
p85
(I-3915
I-10453
I-2165
tp86
sS'accel'
p87
(F0.27
F-0.19
F-0.97
tp88
sg11
F1397237098.0
sa(dp89
S'magnet'
p90
(F-96.6
F467.36
F349.6
tp91
sS'gyro'
p92
(I-10841
I-9719
I-2727
tp93
sS'accel'
p94
(F0.18
F-0.16
F-0.89
tp95
sg11
F1397237098.15
sa(dp96
S'magnet'
p97
(F-110.4
F464.6
F349.6
tp98
sS'gyro'
p99
(I-3254
I5934
I-3816
tp100
sS'accel'
p101
(F0.16
F-0.18
F-0.84
tp102
sg11
F1397237098.27
sa(dp103
S'magnet'
p104
(F-198.72
F459.08
F324.76
tp105
sS'gyro'
p106
(I-2231
I13090
I-8738
tp107
sS'accel'
p108
(F0.19
F-0.08
F-0.98
tp109
sg11
F1397237098.39
sa(dp110
S'magnet'
p111
(F-191.36
F536.36
F262.2
tp112
sS'gyro'
p113
(I19704
I-3982
I1539
tp114
sS'accel'
p115
(F0.31
F0.14
F-1.28
tp116
sg11
F1397237098.51
sa(dp117
S'magnet'
p118
(F-103.96
F696.44
F-22.08
tp119
sS'gyro'
p120
(I32672
I12834
I8536
tp121
sS'accel'
p122
(F0.21
F-0.01
F-1.0
tp123
sg11
F1397237098.63
sa(dp124
S'magnet'
p125
(F-43.24
F657.8
F-282.44
tp126
sS'gyro'
p127
(I24556
I-8122
I7353
tp128
sS'accel'
p129
(F0.15
F-0.34
F-0.37
tp130
sg11
F1397237098.75
sa(dp131
S'magnet'
p132
(F-8.28
F610.88
F-356.04
tp133
sS'gyro'
p134
(I6863
I6126
I5314
tp135
sS'accel'
p136
(F-0.07
F-0.62
F0.29
tp137
sg11
F1397237098.9
sa(dp138
S'magnet'
p139
(F28.52
F594.32
F-379.04
tp140
sS'gyro'
p141
(I-20367
I3272
I-5571
tp142
sS'accel'
p143
(F-0.14
F-0.7
F0.51
tp144
sg11
F1397237099.02
sa(dp145
S'magnet'
p146
(F-21.16
F703.8
F-173.88
tp147
sS'gyro'
p148
(I-32182
I2232
I-2435
tp149
sS'accel'
p150
(F-0.18
F-0.56
F0.19
tp151
sg11
F1397237099.13
sa(dp152
S'magnet'
p153
(F-83.72
F657.8
F130.64
tp154
sS'gyro'
p155
(I-25190
I5792
I-10302
tp156
sS'accel'
p157
(F0.33
F-0.33
F-0.8
tp158
sg11
F1397237099.28
sa(dp159
S'magnet'
p160
(F-173.88
F524.4
F276.0
tp161
sS'gyro'
p162
(I-940
I-2154
I-845
tp163
sS'accel'
p164
(F0.27
F-0.2
F-0.88
tp165
sg11
F1397237099.39
sa(dp166
S'magnet'
p167
(F-173.88
F507.84
F289.8
tp168
sS'gyro'
p169
(I-352
I-1688
I323
tp170
sS'accel'
p171
(F0.22
F-0.14
F-0.89
tp172
sg11
F1397237099.51
sa(dp173
S'magnet'
p174
(F-160.08
F492.2
F310.04
tp175
sS'gyro'
p176
(I-33
I2
I-642
tp177
sS'accel'
p178
(F0.16
F-0.11
F-0.88
tp179
sg11
F1397237099.63
sa(dp180
S'magnet'
p181
(F-163.76
F493.12
F311.88
tp182
sS'gyro'
p183
(I-845
I-28
I-1298
tp184
sS'accel'
p185
(F0.12
F-0.13
F-0.88
tp186
sg11
F1397237099.75
sa(dp187
S'magnet'
p188
(F-174.8
F483.0
F312.8
tp189
sS'gyro'
p190
(I-350
I-4849
I-2080
tp191
sS'accel'
p192
(F0.15
F-0.22
F-0.96
tp193
sg11
F1397237099.9
sa(dp194
S'magnet'
p195
(F-15301.44
F296.24
F-20961.28
tp196
sS'gyro'
p197
(I-4697
I-5571
I1962
tp198
sS'accel'
p199
(F0.12
F-0.1
F-0.91
tp200
sg11
F1397237100.02
sa(dp201
S'magnet'
p202
(F-156.4
F402.04
F377.2
tp203
sS'gyro'
p204
(I-3865
I-1935
I-2543
tp205
sS'accel'
p206
(F0.2
F0.05
F-0.91
tp207
sg11
F1397237100.18
sa(dp208
S'magnet'
p209
(F-169.28
F356.96
F397.44
tp210
sS'gyro'
p211
(I-709
I3007
I751
tp212
sS'accel'
p213
(F0.23
F0.23
F-0.95
tp214
sg11
F1397237100.29
sa(dp215
S'magnet'
p216
(F-161.0
F386.4
F386.4
tp217
sS'gyro'
p218
(I1519
I1515
I101
tp219
sS'accel'
p220
(F0.19
F0.2
F-0.93
tp221
sg11
F1397237100.39
sa(dp222
S'magnet'
p223
(F-175.72
F391.0
F382.72
tp224
sS'gyro'
p225
(I600
I11
I171
tp226
sS'accel'
p227
(F0.18
F0.17
F-0.92
tp228
sg11
F1397237100.51
sa(dp229
S'magnet'
p230
(F-169.28
F391.92
F382.72
tp231
sS'gyro'
p232
(I174
I-672
I-769
tp233
sS'accel'
p234
(F0.17
F0.17
F-0.92
tp235
sg11
F1397237100.62
sa(dp236
S'magnet'
p237
(F-167.44
F397.44
F379.96
tp238
sS'gyro'
p239
(I1311
I8274
I494
tp240
sS'accel'
p241
(F0.24
F0.34
F-1.13
tp242
sg11
F1397237100.77
sa(dp243
S'magnet'
p244
(F-182.16
F507.84
F281.52
tp245
sS'gyro'
p246
(I19867
I-650
I8712
tp247
sS'accel'
p248
(F0.28
F0.39
F-1.16
tp249
sg11
F1397237100.87
sa(dp250
S'magnet'
p251
(F-119.6
F660.56
F94.76
tp252
sS'gyro'
p253
(I31294
I-13136
I-3870
tp254
sS'accel'
p255
(F0.3
F0.12
F-0.75
tp256
sg11
F1397237101.01
sa(dp257
S'magnet'
p258
(F-143.52
F679.88
F-157.32
tp259
sS'gyro'
p260
(I32672
I-835
I9790
tp261
sS'accel'
p262
(F-0.05
F-0.46
F0.12
tp263
sg11
F1397237101.13
sa(dp264
S'magnet'
p265
(F-63.48
F380.88
F-514.28
tp266
sS'gyro'
p267
(I-1590
I3503
I5672
tp268
sS'accel'
p269
(F-0.03
F-0.6
F0.62
tp270
sg11
F1397237101.24
sa(dp271
S'magnet'
p272
(F-19.32
F428.72
F-498.64
tp273
sS'gyro'
p274
(I-14053
I7972
I3227
tp275
sS'accel'
p276
(F-0.06
F-0.64
F0.71
tp277
sg11
F1397237101.39
sa(dp278
S'magnet'
p279
(F92.0
F572.24
F-398.36
tp280
sS'gyro'
p281
(I-24825
I27235
I5268
tp282
sS'accel'
p283
(F-0.09
F-0.56
F0.64
tp284
sg11
F1397237101.5
sa(dp285
S'magnet'
p286
(F163.76
F695.52
F10.12
tp287
sS'gyro'
p288
(I-32768
I32720
I-14766
tp289
sS'accel'
p290
(F0.08
F-0.28
F-0.02
tp291
sg11
F1397237101.62
sa(dp292
S'magnet'
p293
(F-202.4
F298.08
F391.92
tp294
sS'gyro'
p295
(I-19218
I3081
I-24200
tp296
sS'accel'
p297
(F0.52
F0.47
F-0.67
tp298
sg11
F1397237101.76
sa(dp299
S'magnet'
p300
(F-202.4
F375.36
F368.92
tp301
sS'gyro'
p302
(I5559
I-11962
I3180
tp303
sS'accel'
p304
(F0.49
F0.27
F-0.75
tp305
sg11
F1397237101.89
sa(dp306
S'magnet'
p307
(F-188.6
F402.96
F364.32
tp308
sS'gyro'
p309
(I4102
I3778
I-225
tp310
sS'accel'
p311
(F0.37
F0.26
F-0.83
tp312
sg11
F1397237102.0
sa(dp313
S'magnet'
p314
(F-210.68
F431.48
F339.48
tp315
sS'gyro'
p316
(I5402
I309
I-431
tp317
sS'accel'
p318
(F0.42
F0.12
F-0.86
tp319
sg11
F1397237102.14
sa(dp320
S'magnet'
p321
(F-210.68
F448.96
F327.52
tp322
sS'gyro'
p323
(I44
I-813
I-1612
tp324
sS'accel'
p325
(F0.37
F0.06
F-0.88
tp326
sg11
F1397237102.26
sa(dp327
S'magnet'
p328
(F-204.24
F448.96
F331.2
tp329
sS'gyro'
p330
(I1843
I-1065
I-35
tp331
sS'accel'
p332
(F0.33
F0.09
F-0.86
tp333
sg11
F1397237102.37
sa(dp334
S'magnet'
p335
(F-192.28
F463.68
F319.24
tp336
sS'gyro'
p337
(I86
I-606
I-657
tp338
sS'accel'
p339
(F0.29
F0.03
F-0.86
tp340
sg11
F1397237102.49
sa(dp341
S'magnet'
p342
(F-198.72
F450.8
F328.44
tp343
sS'gyro'
p344
(I-79
I-1554
I-2303
tp345
sS'accel'
p346
(F0.28
F0.02
F-0.88
tp347
sg11
F1397237102.64
sa(dp348
S'magnet'
p349
(F-202.4
F434.24
F337.64
tp350
sS'gyro'
p351
(I-2334
I940
I-664
tp352
sS'accel'
p353
(F0.3
F0.05
F-0.87
tp354
sg11
F1397237102.74
sa(dp355
S'magnet'
p356
(F-205.16
F429.64
F336.72
tp357
sS'gyro'
p358
(I3645
I-94
I820
tp359
sS'accel'
p360
(F0.29
F0.09
F-0.89
tp361
sg11
F1397237102.86
sa(dp362
S'magnet'
p363
(F-198.72
F448.96
F329.36
tp364
sS'gyro'
p365
(I-379
I14
I-173
tp366
sS'accel'
p367
(F0.29
F0.1
F-0.9
tp368
sg11
F1397237103.0
sa(dp369
S'magnet'
p370
(F-185.84
F460.92
F330.28
tp371
sS'gyro'
p372
(I132
I-967
I1190
tp373
sS'accel'
p374
(F0.25
F0.02
F-0.93
tp375
sg11
F1397237103.13
sa(dp376
S'magnet'
p377
(F-175.72
F463.68
F329.36
tp378
sS'gyro'
p379
(I-4474
I-7241
I2756
tp380
sS'accel'
p381
(F0.29
F0.0
F-0.92
tp382
sg11
F1397237103.24
sa(dp383
S'magnet'
p384
(F-117.76
F417.68
F380.88
tp385
sS'gyro'
p386
(I-13420
I-13398
I-6145
tp387
sS'accel'
p388
(F0.19
F0.07
F-0.92
tp389
sg11
F1397237103.38
sa(dp390
S'magnet'
p391
(F-20.24
F214.36
F463.68
tp392
sS'gyro'
p393
(I20583
I-5240
I-8802
tp394
sS'accel'
p395
(F0.07
F0.31
F-0.7
tp396
sg11
F1397237103.49
sa(dp397
S'magnet'
p398
(F-18.4
F386.4
F442.52
tp399
sS'gyro'
p400
(I-4567
I16242
I7262
tp401
sS'accel'
p402
(F-0.19
F0.22
F-0.71
tp403
sg11
F1397237103.62
sa(dp404
S'magnet'
p405
(F-144.44
F379.96
F412.16
tp406
sS'gyro'
p407
(I-878
I7655
I4282
tp408
sS'accel'
p409
(F0.25
F0.17
F-0.82
tp410
sg11
F1397237103.73
sa(dp411
S'magnet'
p412
(F-158.24
F391.92
F398.36
tp413
sS'gyro'
p414
(I11608
I16238
I1068
tp415
sS'accel'
p416
(F0.16
F0.13
F-0.78
tp417
sg11
F1397237103.86
sa(dp418
S'magnet'
p419
(F-221.72
F438.84
F344.08
tp420
sS'gyro'
p421
(I-3226
I-3665
I-926
tp422
sS'accel'
p423
(F0.15
F0.13
F-0.82
tp424
sg11
F1397237104.02
sa(dp425
S'magnet'
p426
(F-218.04
F433.32
F348.68
tp427
sS'gyro'
p428
(I203
I508
I167
tp429
sS'accel'
p430
(F0.23
F0.1
F-0.85
tp431
sg11
F1397237104.11
sasS'username'
p432
Vkkk
p433
sS'weight'
p434
V5
p435
sS'exercise'
p436
VBicep
p437
s.