(lp1
(lp2
S'Morgan'
p3
aS'shoulder'
p4
aI0
aF1.1920928955078125e-06
aI0
aI0
aI0
aI0
aI0
aI0
aI0
aI0
aI0
aa(lp5
g3
ag4
aI0
aF0.16341900825500488
aF0.27000000000000002
aF-0.96999999999999997
aF-0.33000000000000002
aI173
aI203
aI-60
aF-119.59999999999999
aF627.44000000000005
aF67.159999999999997
aa(lp6
g3
ag4
aI0
aF0.2422630786895752
aF0.27000000000000002
aF-0.96999999999999997
aF-0.32000000000000001
aI238
aI257
aI-171
aF-121.44
aF621.91999999999996
aF64.400000000000006
aa(lp7
g3
ag4
aI0
aF0.36265015602111816
aF0.27000000000000002
aF-0.95999999999999996
aF-0.32000000000000001
aI233
aI187
aI-108
aF-122.36
aF621
aF61.640000000000001
aa(lp8
g3
ag4
aI0
aF0.48520922660827637
aF0.27000000000000002
aF-0.95999999999999996
aF-0.31
aI323
aI126
aI42
aF-124.2
aF623.75999999999999
aF61.640000000000001
aa(lp9
g3
ag4
aI0
aF0.64222216606140137
aF0.27000000000000002
aF-1.02
aF-0.31
aI596
aI210
aI-44
aF-121.44
aF625.60000000000002
aF57.039999999999999
aa(lp10
g3
ag4
aI0
aF0.74254822731018066
aF0.32000000000000001
aF-1.1100000000000001
aF-0.29999999999999999
aI1935
aI692
aI-2136
aF-129.72
aF618.24000000000001
aF52.439999999999998
aa(lp11
g3
ag4
aI0
aF0.84868812561035156
aF0.34000000000000002
aF-1.1100000000000001
aF-0.25
aI2507
aI752
aI-4134
aF-139.84
aF611.79999999999995
aF43.240000000000002
aa(lp12
g3
ag4
aI0
aF0.97020816802978516
aF0.37
aF-1.05
aF-0.23000000000000001
aI1799
aI-160
aI-2192
aF-166.52000000000001
aF591.55999999999995
aF26.68
aa(lp13
g3
ag4
aI0
aF1.0862560272216797
aF0.41999999999999998
aF-1.02
aF-0.23000000000000001
aI252
aI-1673
aI-553
aF-178.47999999999999
aF578.67999999999995
aF28.52
aa(lp14
g3
ag4
aI0
aF1.2422571182250977
aF0.41999999999999998
aF-0.97999999999999998
aF-0.25
aI-1404
aI-1447
aI896
aF-172.03999999999999
aF579.60000000000002
aF41.399999999999999
aa(lp15
g3
ag4
aI0
aF1.3431251049041748
aF0.37
aF-0.93999999999999995
aF-0.27000000000000002
aI-1115
aI-1144
aI3181
aF-160.08000000000001
aF594.32000000000005
aF64.400000000000006
aa(lp16
g3
ag4
aI0
aF1.4486570358276367
aF0.32000000000000001
aF-0.93000000000000005
aF-0.27000000000000002
aI-851
aI136
aI4276
aF-131.56
aF616.39999999999998
aF76.359999999999999
aa(lp17
g3
ag4
aI0
aF1.5762250423431396
aF0.26000000000000001
aF-0.91000000000000003
aF-0.28000000000000003
aI-1376
aI-1381
aI4671
aF-112.23999999999999
aF633.88
aF78.200000000000003
aa(lp18
g3
ag4
aI0
aF1.7421212196350098
aF0.23999999999999999
aF-0.78000000000000003
aF-0.25
aI387
aI-1856
aI2144
aF-74.519999999999996
aF655.03999999999996
aF96.599999999999994
aa(lp19
g3
ag4
aI0
aF1.8431341648101807
aF0.20000000000000001
aF-0.75
aF-0.28000000000000003
aI378
aI-1850
aI-4807
aF-62.560000000000002
aF659.63999999999999
aF105.8
aa(lp20
g3
ag4
aI0
aF1.9525420665740967
aF0.23000000000000001
aF-0.81999999999999995
aF-0.32000000000000001
aI764
aI2165
aI-4917
aF-98.439999999999998
aF634.79999999999995
aF103.04000000000001
aa(lp21
g3
ag4
aI0
aF2.0889060497283936
aF0.23000000000000001
aF-0.90000000000000002
aF-0.28000000000000003
aI1719
aI969
aI-3622
aF-138.91999999999999
aF603.51999999999998
aF92
aa(lp22
g3
ag4
aI0
aF2.2423942089080811
aF0.27000000000000002
aF-0.98999999999999999
aF-0.27000000000000002
aI1395
aI-627
aI-1964
aF-159.16
aF584.20000000000005
aF80.959999999999994
aa(lp23
g3
ag4
aI0
aF2.3431432247161865
aF0.29999999999999999
aF-1
aF-0.23999999999999999
aI88
aI193
aI-930
aF-169.28
aF575
aF80.040000000000006
aa(lp24
g3
ag4
aI0
aF2.4473550319671631
aF0.39000000000000001
aF-1.05
aF-0.23999999999999999
aI225
aI343
aI-55
aF-170.19999999999999
aF572.24000000000001
aF76.359999999999999
aa(lp25
g3
ag4
aI0
aF2.562669038772583
aF0.41999999999999998
aF-1.04
aF-0.22
aI-154
aI383
aI1359
aF-171.12
aF574.08000000000004
aF78.200000000000003
aa(lp26
g3
ag4
aI0
aF2.6860871315002441
aF0.40999999999999998
aF-1.1100000000000001
aF-0.25
aI-493
aI-521
aI1399
aF-157.31999999999999
aF584.20000000000005
aF82.799999999999997
aa(lp27
g3
ag4
aI0
aF2.8421080112457275
aF0.40000000000000002
aF-1.1699999999999999
aF-0.28999999999999998
aI695
aI2299
aI-581
aF-153.63999999999999
aF587.88
aF83.719999999999999
aa(lp28
g3
ag4
aI0
aF2.9424660205841064
aF0.41999999999999998
aF-1.1699999999999999
aF-0.27000000000000002
aI2627
aI2508
aI-1271
aF-165.59999999999999
aF586.96000000000004
aF59.799999999999997
aa(lp29
g3
ag4
aI0
aF3.0450470447540283
aF0.40999999999999998
aF-1.1100000000000001
aF-0.22
aI2726
aI1318
aI-394
aF-174.80000000000001
aF586.03999999999996
aF31.280000000000001
aa(lp30
g3
ag4
aI0
aF3.1590101718902588
aF0.37
aF-1.04
aF-0.17999999999999999
aI1113
aI-90
aI2353
aF-170.19999999999999
aF587.88
aF21.16
aa(lp31
g3
ag4
aI0
aF3.2862100601196289
aF0.34000000000000002
aF-1
aF-0.17000000000000001
aI-687
aI-941
aI3762
aF-154.56
aF609.03999999999996
aF21.16
aa(lp32
g3
ag4
aI0
aF3.443120002746582
aF0.32000000000000001
aF-1.02
aF-0.17000000000000001
aI-413
aI-164
aI4929
aF-124.2
aF639.39999999999998
aF35.880000000000003
aa(lp33
g3
ag4
aI0
aF3.5426602363586426
aF0.23999999999999999
aF-0.92000000000000004
aF-0.19
aI-928
aI1843
aI5839
aF-80.040000000000006
aF667
aF34.039999999999999
aa(lp34
g3
ag4
aI0
aF3.6626260280609131
aF0.23000000000000001
aF-0.73999999999999999
aF-0.13
aI664
aI367
aI83
aF-42.32
aF691.84000000000003
aF33.119999999999997
aa(lp35
g3
ag4
aI0
aF3.7778120040893555
aF0.22
aF-0.77000000000000002
aF-0.11
aI2032
aI1752
aI-7043
aF-54.280000000000001
aF684.48000000000002
aF26.68
aa(lp36
g3
ag4
aI0
aF3.9428870677947998
aF0.26000000000000001
aF-0.81000000000000005
aF-0.080000000000000002
aI1859
aI3098
aI-6538
aF-113.16
aF648.60000000000002
aF8.2799999999999994
aa(lp37
g3
ag4
aI0
aF4.0420072078704834
aF0.29999999999999999
aF-0.89000000000000001
aF-0.089999999999999997
aI1026
aI796
aI-4017
aF-159.16
aF607.20000000000005
aF-10.119999999999999
aa(lp38
g3
ag4
aI0
aF4.1634981632232666
aF0.39000000000000001
aF-1
aF-0.059999999999999998
aI1270
aI281
aI-1213
aF-179.40000000000001
aF580.51999999999998
aF-22.079999999999998
aa(lp39
g3
ag4
aI0
aF4.2836291790008545
aF0.39000000000000001
aF-1.02
aF-0.040000000000000001
aI-368
aI-1727
aI-828
aF-184.91999999999999
aF570.39999999999998
aF-16.559999999999999
aa(lp40
g3
ag4
aI0
aF4.4427950382232666
aF0.41999999999999998
aF-1.03
aF-0.059999999999999998
aI-320
aI-99
aI-178
aF-189.52000000000001
aF569.48000000000002
aF-11.960000000000001
aa(lp41
g3
ag4
aI0
aF4.5428361892700195
aF0.5
aF-1.0600000000000001
aF-0.089999999999999997
aI258
aI-2598
aI1318
aF-184
aF575.91999999999996
aF-11.960000000000001
aa(lp42
g3
ag4
aI0
aF4.652522087097168
aF0.45000000000000001
aF-1.0600000000000001
aF-0.11
aI-402
aI-1318
aI1237
aF-179.40000000000001
aF579.60000000000002
aF1.8400000000000001
aa(lp43
g3
ag4
aI0
aF4.7738630771636963
aF0.46000000000000002
aF-1.1399999999999999
aF-0.070000000000000007
aI476
aI1211
aI408
aF-169.28
aF589.72000000000003
aF7.3600000000000003
aa(lp44
g3
ag4
aI0
aF4.9429352283477783
aF0.48999999999999999
aF-1.22
aF-0.059999999999999998
aI295
aI-420
aI-860
aF-165.59999999999999
aF591.55999999999995
aF8.2799999999999994
aa(lp45
g3
ag4
aI0
aF5.0418510437011719
aF0.46000000000000002
aF-1.1799999999999999
aF-0.10000000000000001
aI525
aI568
aI-1007
aF-173.88
aF581.44000000000005
aF6.4400000000000004
aa(lp46
g3
ag4
aI0
aF5.1422700881958008
aF0.41999999999999998
aF-1.1100000000000001
aF-0.13
aI-166
aI-1059
aI1654
aF-173.88
aF587.88
aF7.3600000000000003
aa(lp47
g3
ag4
aI0
aF5.2537600994110107
aF0.26000000000000001
aF-1.05
aF-0.12
aI-929
aI853
aI3790
aF-152.72
aF609.96000000000004
aF25.760000000000002
aa(lp48
g3
ag4
aI0
aF5.3749880790710449
aF0.22
aF-0.94999999999999996
aF-0.10000000000000001
aI-1728
aI2334
aI5550
aF-136.16
aF626.51999999999998
aF21.16
aa(lp49
g3
ag4
aI0
aF5.5421340465545654
aF0.22
aF-0.83999999999999997
aF-0.10000000000000001
aI-1706
aI-201
aI7644
aF-89.239999999999995
aF662.39999999999998
aF23
aa(lp50
g3
ag4
aI0
aF5.6424310207366943
aF0.23000000000000001
aF-0.73999999999999999
aF-0.059999999999999998
aI-73
aI-3117
aI-673
aF-36.799999999999997
aF693.67999999999995
aF36.799999999999997
aa(lp51
g3
ag4
aI0
aF5.7429711818695068
aF0.17999999999999999
aF-0.77000000000000002
aF-0.089999999999999997
aI1924
aI1074
aI-7634
aF-71.760000000000005
aF672.51999999999998
aF37.719999999999999
aa(lp52
g3
ag4
aI0
aF5.8525781631469727
aF0.25
aF-0.81999999999999995
aF-0.13
aI1347
aI913
aI-5893
aF-129.72
aF634.79999999999995
aF23
aa(lp53
g3
ag4
aI0
aF5.9763932228088379
aF0.29999999999999999
aF-0.93999999999999995
aF-0.13
aI1176
aI-351
aI-3308
aF-161.91999999999999
aF602.60000000000002
aF15.640000000000001
aa(lp54
g3
ag4
aI0
aF6.1429791450500488
aF0.35999999999999999
aF-0.98999999999999999
aF-0.11
aI-622
aI-2017
aI-2162
aF-170.19999999999999
aF590.63999999999999
aF17.48
aa(lp55
g3
ag4
aI0
aF6.2448692321777344
aF0.37
aF-1.0600000000000001
aF-0.11
aI155
aI-1156
aI-577
aF-178.47999999999999
aF578.67999999999995
aF26.68
aa(lp56
g3
ag4
aI0
aF6.3576970100402832
aF0.39000000000000001
aF-1.03
aF-0.11
aI-444
aI-172
aI-423
aF-184
aF569.48000000000002
aF35.880000000000003
aa(lp57
g3
ag4
aI0
aF6.4949541091918945
aF0.42999999999999999
aF-1.04
aF-0.14000000000000001
aI622
aI-424
aI673
aF-182.16
aF572.24000000000001
aF40.479999999999997
aa(lp58
g3
ag4
aI0
aF6.6419579982757568
aF0.48999999999999999
aF-1.1200000000000001
aF-0.14000000000000001
aI1430
aI-176
aI451
aF-174.80000000000001
aF574.08000000000004
aF39.560000000000002
aa(lp59
g3
ag4
aI0
aF6.7419490814208984
aF0.53000000000000003
aF-1.2
aF-0.089999999999999997
aI1058
aI177
aI-1146
aF-178.47999999999999
aF574.08000000000004
aF34.039999999999999
aa(lp60
g3
ag4
aI0
aF6.8448760509490967
aF0.48999999999999999
aF-1.21
aF-0.080000000000000002
aI669
aI290
aI-1450
aF-184.91999999999999
aF568.55999999999995
aF31.280000000000001
aa(lp61
g3
ag4
aI0
aF6.9686641693115234
aF0.44
aF-1.1299999999999999
aF-0.089999999999999997
aI263
aI1356
aI790
aF-190.44
aF564.88
aF23
aa(lp62
g3
ag4
aI0
aF7.0900700092315674
aF0.39000000000000001
aF-1.02
aF-0.10000000000000001
aI-989
aI32
aI3625
aF-178.47999999999999
aF577.75999999999999
aF17.48
aa(lp63
g3
ag4
aI0
aF7.2428719997406006
aF0.39000000000000001
aF-0.90000000000000002
aF-0.12
aI-1404
aI-373
aI4325
aF-150.88
aF612.72000000000003
aF27.600000000000001
aa(lp64
g3
ag4
aI0
aF7.3430290222167969
aF0.28000000000000003
aF-0.85999999999999999
aF-0.13
aI-1330
aI-431
aI4056
aF-115
aF642.15999999999997
aF39.560000000000002
aa(lp65
g3
ag4
aI0
aF7.4487020969390869
aF0.28999999999999998
aF-0.71999999999999997
aF-0.089999999999999997
aI554
aI-6
aI-698
aF-94.760000000000005
aF655.96000000000004
aF42.32
aa(lp66
g3
ag4
aI0
aF7.5612871646881104
aF0.29999999999999999
aF-0.72999999999999998
aF-0.11
aI253
aI-200
aI-5638
aF-107.64
aF647.67999999999995
aF44.159999999999997
aa(lp67
g3
ag4
aI0
aF7.7064790725708008
aF0.31
aF-0.84999999999999998
aF-0.10000000000000001
aI-346
aI470
aI-3461
aF-149.03999999999999
aF610.88
aF46
aa(lp68
g3
ag4
aI0
aF7.8485510349273682
aF0.29999999999999999
aF-0.96999999999999997
aF-0.11
aI-1612
aI-297
aI-798
aF-165.59999999999999
aF589.72000000000003
aF53.359999999999999
aa(lp69
g3
ag4
aI0
aF7.9419360160827637
aF0.31
aF-1.0600000000000001
aF-0.14000000000000001
aI-1352
aI3158
aI932
aF-168.36000000000001
aF586.96000000000004
aF55.200000000000003
aa(lp70
g3
ag4
aI0
aF8.0738120079040527
aF0.34999999999999998
aF-1.0700000000000001
aF-0.22
aI-455
aI2781
aI464
aF-165.59999999999999
aF593.39999999999998
aF44.159999999999997
aa(lp71
g3
ag4
aI0
aF8.2419331073760986
aF0.37
aF-1.05
aF-0.17999999999999999
aI485
aI-949
aI-189
aF-166.52000000000001
aF587.88
aF41.399999999999999
aa(lp72
g3
ag4
aI0
aF8.3428521156311035
aF0.34999999999999998
aF-1.05
aF-0.12
aI616
aI-2223
aI3763
aF-161.91999999999999
aF589.72000000000003
aF46
aa(lp73
g3
ag4
aI0
aF8.4420402050018311
aF0.32000000000000001
aF-1.1799999999999999
aF-0.17000000000000001
aI-1400
aI-2173
aI1342
aF-136.16
aF611.79999999999995
aF58.880000000000003
aa(lp74
g3
ag4
aI0
aF8.5751020908355713
aF0.37
aF-1.29
aF-0.17000000000000001
aI2103
aI2422
aI-3655
aF-132.47999999999999
aF612.72000000000003
aF71.760000000000005
aa(lp75
g3
ag4
aI0
aF8.7429320812225342
aF0.42999999999999999
aF-1.24
aF-0.20000000000000001
aI2778
aI1277
aI-2411
aF-159.16
aF591.55999999999995
aF39.560000000000002
aa(lp76
g3
ag4
aI0
aF8.8420200347900391
aF0.35999999999999999
aF-1.1499999999999999
aF-0.16
aI-1923
aI-3237
aI792
aF-169.28
aF586.03999999999996
aF37.719999999999999
aa(lp77
g3
ag4
aI0
aF8.9420790672302246
aF0.27000000000000002
aF-0.97999999999999998
aF-0.16
aI-3645
aI647
aI3629
aF-150.88
aF596.15999999999997
aF75.439999999999998
aa(lp78
g3
ag4
aI0
aF9.0501542091369629
aF0.27000000000000002
aF-0.81999999999999995
aF-0.20000000000000001
aI-1022
aI4090
aI8054
aF-110.40000000000001
aF639.39999999999998
aF69.920000000000002
aa(lp79
g3
ag4
aI0
aF9.1714210510253906
aF0.28000000000000003
aF-0.69999999999999996
aF-0.17000000000000001
aI730
aI1248
aI5129
aF-76.359999999999999
aF661.48000000000002
aF65.319999999999993
aa(lp80
g3
ag4
aI0
aF9.3113391399383545
aF0.23999999999999999
aF-0.69999999999999996
aF-0.16
aI1481
aI-1340
aI-6662
aF-57.960000000000001
aF680.79999999999995
aF58.880000000000003
aa(lp81
g3
ag4
aI0
aF9.4429681301116943
aF0.22
aF-0.72999999999999998
aF-0.13
aI852
aI323
aI-7902
aF-115.92
aF634.79999999999995
aF59.799999999999997
aa(lp82
g3
ag4
aI0
aF9.5419561862945557
aF0.27000000000000002
aF-0.85999999999999999
aF-0.17000000000000001
aI672
aI1119
aI-3974
aF-163.75999999999999
aF592.48000000000002
aF53.359999999999999
aa(lp83
g3
ag4
aI0
aF9.6863021850585938
aF0.32000000000000001
aF-1
aF-0.20999999999999999
aI739
aI629
aI-484
aF-178.47999999999999
aF576.84000000000003
aF44.159999999999997
aa(lp84
g3
ag4
aI0
aF9.8429081439971924
aF0.38
aF-1.04
aF-0.19
aI135
aI-36
aI78
aF-179.40000000000001
aF574.08000000000004
aF36.799999999999997
aa(lp85
g3
ag4
aI0
aF9.9428031444549561
aF0.37
aF-1.04
aF-0.13
aI43
aI165
aI-436
aF-178.47999999999999
aF575.91999999999996
aF34.039999999999999
aa(lp86
g3
ag4
aI0
aF10.041794061660767
aF0.39000000000000001
aF-1.03
aF-0.14000000000000001
aI161
aI1437
aI1583
aF-179.40000000000001
aF575.91999999999996
aF33.119999999999997
aa(lp87
g3
ag4
aI0
aF10.156316041946411
aF0.42999999999999999
aF-1.0600000000000001
aF-0.17000000000000001
aI-160
aI1885
aI1895
aF-169.28
aF586.96000000000004
aF27.600000000000001
aa(lp88
g3
ag4
aI0
aF10.270039081573486
aF0.46999999999999997
aF-1.1599999999999999
aF-0.16
aI-84
aI-325
aI1087
aF-157.31999999999999
aF598
aF25.760000000000002
aa(lp89
g3
ag4
aI0
aF10.44201922416687
aF0.48999999999999999
aF-1.3300000000000001
aF-0.13
aI1496
aI87
aI-1603
aF-155.47999999999999
aF598
aF27.600000000000001
aa(lp90
g3
ag4
aI0
aF10.541861057281494
aF0.46999999999999997
aF-1.3400000000000001
aF-0.14000000000000001
aI1571
aI846
aI-3221
aF-165.59999999999999
aF588.79999999999995
aF22.079999999999998
aa(lp91
g3
ag4
aI0
aF10.655048131942749
aF0.40000000000000002
aF-1.1599999999999999
aF-0.17999999999999999
aI-934
aI-158
aI731
aF-184
aF572.24000000000001
aF13.800000000000001
aa(lp92
g3
ag4
aI0
aF10.776334047317505
aF0.38
aF-0.92000000000000004
aF-0.17000000000000001
aI-854
aI660
aI6550
aF-169.28
aF586.96000000000004
aF30.359999999999999
aa(lp93
g3
ag4
aI0
aF10.94238018989563
aF0.38
aF-0.67000000000000004
aF-0.13
aI-1236
aI-1350
aI7650
aF-112.23999999999999
aF644
aF42.32
aa(lp94
g3
ag4
aI0
aF11.043754100799561
aF0.29999999999999999
aF-0.59999999999999998
aF-0.089999999999999997
aI2098
aI-1517
aI-3051
aF-82.799999999999997
aF663.32000000000005
aF51.520000000000003
aa(lp95
g3
ag4
aI0
aF11.142826080322266
aF0.29999999999999999
aF-0.73999999999999999
aF-0.10000000000000001
aI2373
aI394
aI-6400
aF-128.80000000000001
aF627.44000000000005
aF42.32
aa(lp96
g3
ag4
aI0
aF11.248876094818115
aF0.31
aF-0.90000000000000002
aF-0.12
aI255
aI1225
aI-2843
aF-161
aF601.67999999999995
aF34.039999999999999
aa(lp97
g3
ag4
aI0
aF11.392419099807739
aF0.34000000000000002
aF-0.95999999999999996
aF-0.14000000000000001
aI-853
aI1630
aI-1354
aF-168.36000000000001
aF587.88
aF34.039999999999999
aa(lp98
g3
ag4
aI0
aF11.542359113693237
aF0.37
aF-1.03
aF-0.16
aI256
aI376
aI-1026
aF-175.72
aF578.67999999999995
aF27.600000000000001
aa(lp99
g3
ag4
aI0
aF11.641468048095703
aF0.41999999999999998
aF-1.05
aF-0.13
aI1198
aI-653
aI-845
aF-185.84
aF569.48000000000002
aF25.760000000000002
aa(lp100
g3
ag4
aI0
aF11.742293119430542
aF0.44
aF-1.02
aF-0.080000000000000002
aI521
aI-1165
aI18
aF-188.59999999999999
aF565.79999999999995
aF25.760000000000002
aa(lp101
g3
ag4
aI0
aF11.88518500328064
aF0.42999999999999999
aF-1.05
aF-0.070000000000000007
aI-490
aI-287
aI2041
aF-178.47999999999999
aF574.08000000000004
aF29.440000000000001
aa(lp102
g3
ag4
aI0
aF12.042757034301758
aF0.47999999999999998
aF-1.2
aF-0.040000000000000001
aI401
aI519
aI716
aF-164.68000000000001
aF583.27999999999997
aF28.52
aa(lp103
g3
ag4
aI0
aF12.1428542137146
aF0.53000000000000003
aF-1.3200000000000001
aF-0.02
aI1997
aI-101
aI-1803
aF-168.36000000000001
aF586.03999999999996
aF26.68
aa(lp104
g3
ag4
aI0
aF12.246264219284058
aF0.51000000000000001
aF-1.29
aF-0.050000000000000003
aI1561
aI921
aI-258
aF-180.31999999999999
aF573.15999999999997
aF18.399999999999999
aa(lp105
g3
ag4
aI0
aF12.371518135070801
aF0.38
aF-1.1299999999999999
aF-0.059999999999999998
aI-2556
aI-2000
aI3589
aF-176.63999999999999
aF581.44000000000005
aF17.48
aa(lp106
g3
ag4
aI0
aF12.542271137237549
aF0.28999999999999998
aF-0.95999999999999996
aF-0.070000000000000007
aI-3670
aI-255
aI6984
aF-141.68000000000001
aF615.48000000000002
aF52.439999999999998
aa(lp107
g3
ag4
aI0
aF12.642613172531128
aF0.29999999999999999
aF-0.68000000000000005
aF-0.040000000000000001
aI-434
aI2063
aI6938
aF-88.319999999999993
aF656.88
aF67.159999999999997
aa(lp108
g3
ag4
aI0
aF12.742829084396362
aF0.28000000000000003
aF-0.59999999999999998
aF-0.029999999999999999
aI2579
aI113
aI-3765
aF-73.599999999999994
aF669.75999999999999
aF46.920000000000002
aa(lp109
g3
ag4
aI0
aF12.845271110534668
aF0.23000000000000001
aF-0.69999999999999996
aF-0.089999999999999997
aI2758
aI-2852
aI-7742
aF296.24000000000001
aF2387.4000000000001
aF-14602.24
aa(lp110
g3
ag4
aI0
aF12.976351022720337
aF0.32000000000000001
aF-0.89000000000000001
aF-0.089999999999999997
aI2088
aI416
aI-3072
aF-151.80000000000001
aF610.88
aF29.440000000000001
aa(lp111
g3
ag4
aI0
aF13.142925024032593
aF0.39000000000000001
aF-1.05
aF-0.10000000000000001
aI-1484
aI361
aI-1086
aF-168.36000000000001
aF595.24000000000001
aF22.079999999999998
aa(lp112
g3
ag4
aI0
aF13.243673086166382
aF0.39000000000000001
aF-1.0800000000000001
aF-0.070000000000000007
aI-748
aI185
aI171
aF-172.96000000000001
aF584.20000000000005
aF31.280000000000001
aa(lp113
g3
ag4
aI0
aF13.35644006729126
aF0.35999999999999999
aF-1.0700000000000001
aF-0.10000000000000001
aI-324
aI-1022
aI280
aF-167.44
aF589.72000000000003
aF30.359999999999999
aa(lp114
g3
ag4
aI0
aF13.476429224014282
aF0.34000000000000002
aF-1.02
aF-0.12
aI-176
aI555
aI62
aF-165.59999999999999
aF588.79999999999995
aF37.719999999999999
aa(lp115
g3
ag4
aI0
aF13.642961025238037
aF0.35999999999999999
aF-1.04
aF-0.12
aI-25
aI1332
aI1699
aF-164.68000000000001
aF593.39999999999998
aF32.200000000000003
aa(lp116
g3
ag4
aI0
aF13.742900133132935
aF0.35999999999999999
aF-1.1000000000000001
aF-0.11
aI-478
aI-1469
aI877
aF-155.47999999999999
aF599.84000000000003
aF35.880000000000003
aa(lp117
g3
ag4
aI0
aF13.844990015029907
aF0.40000000000000002
aF-1.2
aF-0.059999999999999998
aI996
aI-1287
aI-1110
aF-149.96000000000001
aF602.60000000000002
aF49.68
aa(lp118
g3
ag4
aI0
aF13.961460113525391
aF0.40999999999999998
aF-1.25
aF-0.070000000000000007
aI1177
aI479
aI-2410
aF-158.24000000000001
aF596.15999999999997
aF44.159999999999997
aa(lp119
g3
ag4
aI0
aF14.080175161361694
aF0.41999999999999998
aF-1.1899999999999999
aF-0.080000000000000002
aI638
aI596
aI-433
aF-173.88
aF584.20000000000005
aF32.200000000000003
aa(lp120
g3
ag4
aI0
aF14.243048191070557
aF0.40999999999999998
aF-1.1299999999999999
aF-0.13
aI-1928
aI-1026
aI1677
aF-167.44
aF587.88
aF42.32
aa(lp121
g3
ag4
aI0
aF14.342475175857544
aF0.39000000000000001
aF-0.94999999999999996
aF-0.14999999999999999
aI-2357
aI3364
aI5937
aF-146.28
aF615.48000000000002
aF46
aa(lp122
g3
ag4
aI0
aF14.457787036895752
aF0.35999999999999999
aF-0.66000000000000003
aF-0.14000000000000001
aI-2654
aI52
aI6548
aF-120.52
aF632.96000000000004
aF51.520000000000003
aa(lp123
g3
ag4
aI0
aF14.575110197067261
aF0.29999999999999999
aF-0.62
aF-0.13
aI2386
aI-480
aI-2740
aF-76.359999999999999
aF662.39999999999998
aF69.920000000000002
aa(lp124
g3
ag4
aI0
aF14.742806196212769
aF0.26000000000000001
aF-0.76000000000000001
aF-0.10000000000000001
aI1733
aI-3085
aI-6942
aF-113.16
aF639.39999999999998
aF57.039999999999999
aa(lp125
g3
ag4
aI0
aF14.84277606010437
aF0.27000000000000002
aF-0.83999999999999997
aF-0.14999999999999999
aI1295
aI3730
aI-4202
aF-156.40000000000001
aF602.60000000000002
aF45.079999999999998
aa(lp126
g3
ag4
aI0
aF14.942738056182861
aF0.35999999999999999
aF-0.98999999999999999
aF-0.12
aI-368
aI1906
aI-3321
aF-182.16
aF570.39999999999998
aF28.52
aa(lp127
g3
ag4
aI0
aF15.081443071365356
aF0.38
aF-1.02
aF-0.10000000000000001
aI528
aI127
aI-17
aF-195.96000000000001
aF560.27999999999997
aF20.239999999999998
aa(lp128
g3
ag4
aI0
aF15.242420196533203
aF0.42999999999999999
aF-1.03
aF-0.070000000000000007
aI1816
aI-4411
aI1307
aF-193.19999999999999
aF561.20000000000005
aF17.48
aa(lp129
g3
ag4
aI0
aF15.34259819984436
aF0.45000000000000001
aF-1.0800000000000001
aF-0.059999999999999998
aI1110
aI-1866
aI847
aF-181.24000000000001
aF575
aF24.84
aa(lp130
g3
ag4
aI0
aF15.448757171630859
aF0.46000000000000002
aF-1.1200000000000001
aF-0.040000000000000001
aI1051
aI-2791
aI-571
aF-176.63999999999999
aF575.91999999999996
aF34.039999999999999
aa(lp131
g3
ag4
aI0
aF15.571662187576294
aF0.51000000000000001
aF-1.1799999999999999
aF-0.02
aI900
aI-1418
aI-683
aF-178.47999999999999
aF571.32000000000005
aF50.600000000000001
aa(lp132
g3
ag4
aI0
aF15.743037223815918
aF0.51000000000000001
aF-1.23
aF-0.02
aI176
aI1197
aI-1576
aF-184.91999999999999
aF566.72000000000003
aF46.920000000000002
aa(lp133
g3
ag4
aI0
aF15.841692209243774
aF0.44
aF-1.1899999999999999
aF-0.050000000000000003
aI-818
aI2135
aI-488
aF-194.12
aF557.51999999999998
aF39.560000000000002
aa(lp134
g3
ag4
aI0
aF15.942257165908813
aF0.42999999999999999
aF-1.1499999999999999
aF-0.050000000000000003
aI-1959
aI-208
aI1775
aF-188.59999999999999
aF566.72000000000003
aF38.640000000000001
aa(lp135
g3
ag4
aI0
aF16.04293417930603
aF0.38
aF-0.98999999999999999
aF-0.070000000000000007
aI-3405
aI-1931
aI5412
aF-176.63999999999999
aF578.67999999999995
aF55.200000000000003
aa(lp136
g3
ag4
aI0
aF16.182887077331543
aF0.23000000000000001
aF-0.68000000000000005
aF-0.040000000000000001
aI-2027
aI183
aI6796
aF-132.47999999999999
aF616.39999999999998
aF86.480000000000004
aa(lp137
g3
ag4
aI0
aF16.342987060546875
aF0.23999999999999999
aF-0.58999999999999997
aF-0.029999999999999999
aI1449
aI1618
aI-2678
aF-92
aF647.67999999999995
aF86.480000000000004
aa(lp138
g3
ag4
aI0
aF16.442774057388306
aF0.26000000000000001
aF-0.70999999999999996
aF-0.070000000000000007
aI1436
aI-161
aI-5863
aF-129.72
aF623.75999999999999
aF68.079999999999998
aa(lp139
g3
ag4
aI0
aF16.570106029510498
aF0.33000000000000002
aF-0.87
aF-0.070000000000000007
aI1250
aI-1025
aI-2907
aF-164.68000000000001
aF588.79999999999995
aF60.719999999999999
aa(lp140
g3
ag4
aI0
aF16.741927146911621
aF0.37
aF-1
aF-0.14999999999999999
aI-2811
aI-834
aI-519
aF-172.96000000000001
aF576.84000000000003
aF74.519999999999996
aa(lp141
g3
ag4
aI0
aF16.841913223266602
aF0.40999999999999998
aF-1.1100000000000001
aF-0.17000000000000001
aI-752
aI1880
aI1462
aF-168.36000000000001
aF573.15999999999997
aF72.680000000000007
aa(lp142
g3
ag4
aI0
aF16.941835165023804
aF0.37
aF-1.0700000000000001
aF-0.17999999999999999
aI-1290
aI-108
aI263
aF-168.36000000000001
aF579.60000000000002
aF72.680000000000007
aa(lp143
g3
ag4
aI0
aF17.042055130004883
aF0.40000000000000002
aF-1.01
aF-0.23000000000000001
aI-1416
aI-192
aI588
aF-166.52000000000001
aF580.51999999999998
aF73.599999999999994
aa(lp144
g3
ag4
aI0
aF17.18153715133667
aF0.37
aF-1.03
aF-0.25
aI-2596
aI-1265
aI1228
aF-156.40000000000001
aF580.51999999999998
aF95.680000000000007
aa(lp145
g3
ag4
aI0
aF17.342944145202637
aF0.40000000000000002
aF-1.1599999999999999
aF-0.23999999999999999
aI54
aI1035
aI245
aF-149.03999999999999
aF585.12
aF105.8
aa(lp146
g3
ag4
aI0
aF17.448868036270142
aF0.44
aF-1.25
aF-0.28000000000000003
aI1885
aI663
aI-1967
aF-152.72
aF584.20000000000005
aF92.920000000000002
aa(lp147
g3
ag4
aI0
aF17.542529106140137
aF0.46999999999999997
aF-1.25
aF-0.27000000000000002
aI2872
aI3669
aI-1747
aF-172.96000000000001
aF571.32000000000005
aF67.159999999999997
aa(lp148
g3
ag4
aI0
aF17.677993059158325
aF0.44
aF-1.1399999999999999
aF-0.29999999999999999
aI-1228
aI-1266
aI427
aF-173.88
aF575
aF51.520000000000003
aa(lp149
g3
ag4
aI0
aF17.842526197433472
aF0.38
aF-0.96999999999999997
aF-0.23999999999999999
aI-1717
aI-2711
aI5786
aF-165.59999999999999
aF583.27999999999997
aF74.519999999999996
aa(lp150
g3
ag4
aI0
aF17.942011117935181
aF0.33000000000000002
aF-0.75
aF-0.20000000000000001
aI-580
aI-3146
aI8646
aF-113.16
aF625.60000000000002
aF103.04000000000001
aa(lp151
g3
ag4
aI0
aF18.042786121368408
aF0.28999999999999998
aF-0.65000000000000002
aF-0.19
aI1622
aI-2270
aI-2000
aF-54.280000000000001
aF660.55999999999995
aF108.56
aa(lp152
g3
ag4
aI0
aF18.172785043716431
aF0.28999999999999998
aF-0.72999999999999998
aF-0.17999999999999999
aI1434
aI2197
aI-6933
aF-96.599999999999994
aF634.79999999999995
aF104.88
aa(lp153
g3
ag4
aI0
aF18.342032194137573
aF0.28999999999999998
aF-0.87
aF-0.16
aI1245
aI3367
aI-2574
aF-139.84
aF609.03999999999996
aF80.040000000000006
aa(lp154
g3
ag4
aI0
aF18.441906213760376
aF0.28000000000000003
aF-0.91000000000000003
aF-0.20999999999999999
aI-1601
aI-785
aI-607
aF-152.72
aF597.08000000000004
aF73.599999999999994
aa(lp155
g3
ag4
aI0
aF18.542447090148926
aF0.28999999999999998
aF-1.02
aF-0.26000000000000001
aI-726
aI2257
aI776
aF-150.88
aF589.72000000000003
aF81.879999999999995
aa(lp156
g3
ag4
aI0
aF18.648834228515625
aF0.34000000000000002
aF-1.0800000000000001
aF-0.25
aI-1458
aI-1893
aI384
aF-149.96000000000001
aF593.39999999999998
aF78.200000000000003
aa(lp157
g3
ag4
aI0
aF18.773861169815063
aF0.34000000000000002
aF-1.05
aF-0.27000000000000002
aI-1420
aI12
aI1946
aF-140.75999999999999
aF597.08000000000004
aF98.439999999999998
aa(lp158
g3
ag4
aI0
aF18.941855192184448
aF0.27000000000000002
aF-1.02
aF-0.27000000000000002
aI-2635
aI-2642
aI769
aF-128.80000000000001
aF595.24000000000001
aF118.68000000000001
aa(lp159
g3
ag4
aI0
aF19.041527032852173
aF0.26000000000000001
aF-0.98999999999999999
aF-0.34999999999999998
aI-2136
aI2492
aI1676
aF-117.76000000000001
aF593.39999999999998
aF138.91999999999999
aa(lp160
g3
ag4
aI0
aF19.158738136291504
aF0.27000000000000002
aF-1.01
aF-0.38
aI107
aI3390
aI1792
aF-115
aF599.84000000000003
aF124.2
aa(lp161
g3
ag4
aI0
aF19.288855075836182
aF0.26000000000000001
aF-1.03
aF-0.37
aI1123
aI481
aI964
aF-115
aF612.72000000000003
aF105.8
aa(lp162
g3
ag4
aI0
aF19.442828178405762
aF0.23000000000000001
aF-1.01
aF-0.33000000000000002
aI899
aI-1585
aI-91
aF-107.64
aF614.55999999999995
aF104.88
aa(lp163
g3
ag4
aI0
aF19.541755199432373
aF0.20999999999999999
aF-0.98999999999999999
aF-0.34000000000000002
aI300
aI-458
aI155
aF-106.72
aF617.32000000000005
aF105.8
aa(lp164
g3
ag4
aI0
aF19.641458034515381
aF0.20999999999999999
aF-0.97999999999999998
aF-0.34000000000000002
aI202
aI801
aI146
aF-103.95999999999999
aF621.91999999999996
aF105.8
aa(lp165
g3
ag4
aI0
aF19.755068063735962
aF0.20000000000000001
aF-0.97999999999999998
aF-0.33000000000000002
aI212
aI1456
aI36
aF-104.88
aF622.84000000000003
aF103.04000000000001
aa(lp166
g3
ag4
aI0
aF19.892556190490723
aF0.22
aF-0.96999999999999997
aF-0.33000000000000002
aI148
aI640
aI-39
aF-104.88
aF621.91999999999996
aF96.599999999999994
aa(lp167
g3
ag4
aI0
aF20.042612075805664
aF0.22
aF-0.96999999999999997
aF-0.33000000000000002
aI22
aI332
aI8
aF-103.95999999999999
aF621.91999999999996
aF98.439999999999998
aa(lp168
g3
ag4
aI0
aF20.14176607131958
aF0.20999999999999999
aF-0.96999999999999997
aF-0.33000000000000002
aI42
aI1166
aI50
aF-106.72
aF624.67999999999995
aF97.519999999999996
aa(lp169
g3
ag4
aI0
aF20.241817235946655
aF0.22
aF-0.97999999999999998
aF-0.33000000000000002
aI-184
aI-227
aI-40
aF-107.64
aF622.84000000000003
aF92.920000000000002
aa(lp170
g3
ag4
aI0
aF20.362669229507446
aF0.20999999999999999
aF-0.97999999999999998
aF-0.32000000000000001
aI103
aI405
aI-156
aF-108.56
aF621.91999999999996
aF96.599999999999994
aa(lp171
g3
ag4
aI0
aF20.483979225158691
aF0.22
aF-0.96999999999999997
aF-0.33000000000000002
aI151
aI573
aI-250
aF-108.56
aF622.84000000000003
aF94.760000000000005
aa(lp172
g3
ag4
aI0
aF20.64223313331604
aF0.23000000000000001
aF-0.96999999999999997
aF-0.32000000000000001
aI302
aI227
aI29
aF-109.48
aF621
aF92
aa(lp173
g3
ag4
aI0
aF20.742644071578979
aF0.22
aF-0.96999999999999997
aF-0.32000000000000001
aI91
aI344
aI11
aF-110.40000000000001
aF621
aF90.159999999999997
aa(lp174
g3
ag4
aI0
aF20.84197211265564
aF0.23000000000000001
aF-0.96999999999999997
aF-0.32000000000000001
aI140
aI166
aI24
aF-110.40000000000001
aF620.08000000000004
aF89.239999999999995
aa(lp175
g3
ag4
aI0
aF20.953691005706787
aF0.22
aF-0.97999999999999998
aF-0.32000000000000001
aI214
aI322
aI-189
aF-109.48
aF621.91999999999996
aF89.239999999999995
aa(lp176
g3
ag4
aI0
aF21.074920177459717
aF0.23000000000000001
aF-0.96999999999999997
aF-0.32000000000000001
aI51
aI210
aI-121
aF-108.56
aF621.91999999999996
aF87.400000000000006
aa(lp177
g3
ag4
aI0
aF21.242682218551636
aF0.23999999999999999
aF-0.96999999999999997
aF-0.32000000000000001
aI116
aI193
aI62
aF-109.48
aF623.75999999999999
aF90.159999999999997
aa(lp178
g3
ag4
aI0
aF21.34224009513855
aF0.23000000000000001
aF-0.96999999999999997
aF-0.32000000000000001
aI-97
aI-164
aI-86
aF-110.40000000000001
aF621.91999999999996
aF88.319999999999993
aa(lp179
g3
ag4
aI0
aF21.442167043685913
aF0.23000000000000001
aF-0.97999999999999998
aF-0.32000000000000001
aI87
aI328
aI-78
aF-110.40000000000001
aF621.91999999999996
aF89.239999999999995
aa(lp180
g3
ag4
aI0
aF21.559054136276245
aF0.23000000000000001
aF-0.96999999999999997
aF-0.32000000000000001
aI13
aI87
aI94
aF-108.56
aF621.91999999999996
aF91.079999999999998
aa(lp181
g3
ag4
aI0
aF21.742249011993408
aF0.23000000000000001
aF-0.96999999999999997
aF-0.32000000000000001
aI175
aI248
aI123
aF-110.40000000000001
aF621
aF91.079999999999998
aa(lp182
g3
ag4
aI0
aF21.842321157455444
aF0.23000000000000001
aF-0.96999999999999997
aF-0.33000000000000002
aI-2
aI-39
aI-181
aF-108.56
aF623.75999999999999
aF89.239999999999995
aa(lp183
g3
ag4
aI0
aF21.942540168762207
aF0.23000000000000001
aF-0.96999999999999997
aF-0.32000000000000001
aI147
aI384
aI28
aF-108.56
aF621.91999999999996
aF90.159999999999997
aa(lp184
g3
ag4
aI0
aF22.042348146438599
aF0.23000000000000001
aF-0.96999999999999997
aF-0.32000000000000001
aI77
aI-70
aI61
aF-109.48
aF622.84000000000003
aF91.079999999999998
aa(lp185
g3
ag4
aI0
aF22.156658172607422
aF0.23000000000000001
aF-0.97999999999999998
aF-0.32000000000000001
aI-7
aI212
aI-12
aF-105.8
aF623.75999999999999
aF94.760000000000005
aa(lp186
g3
ag4
aI0
aF22.276433229446411
aF0.23000000000000001
aF-0.96999999999999997
aF-0.32000000000000001
aI-57
aI207
aI87
aF-106.72
aF623.75999999999999
aF88.319999999999993
aa(lp187
g3
ag4
aI0
aF22.442676067352295
aF0.22
aF-0.96999999999999997
aF-0.32000000000000001
aI-325
aI267
aI-65
aF-103.95999999999999
aF624.67999999999995
aF93.840000000000003
aa(lp188
g3
ag4
aI0
aF22.542793035507202
aF0.22
aF-0.97999999999999998
aF-0.33000000000000002
aI-82
aI495
aI-36
aF-107.64
aF621.91999999999996
aF94.760000000000005
aa(lp189
g3
ag4
aI0
aF22.642454147338867
aF0.22
aF-0.96999999999999997
aF-0.33000000000000002
aI-15
aI-36
aI-209
aF-105.8
aF621.91999999999996
aF94.760000000000005
aa(lp190
g3
ag4
aI0
aF22.76009202003479
aF0.22
aF-0.96999999999999997
aF-0.33000000000000002
aI-68
aI383
aI-261
aF-109.48
aF621
aF96.599999999999994
aa(lp191
g3
ag4
aI0
aF22.941651105880737
aF0.23000000000000001
aF-0.96999999999999997
aF-0.33000000000000002
aI-69
aI97
aI-198
aF-108.56
aF619.15999999999997
aF98.439999999999998
aa(lp192
g3
ag4
aI0
aF23.042586088180542
aF0.23000000000000001
aF-0.95999999999999996
aF-0.34000000000000002
aI-162
aI187
aI12
aF-109.48
aF619.15999999999997
aF98.439999999999998
aa(lp193
g3
ag4
aI0
aF23.142690181732178
aF0.23000000000000001
aF-0.95999999999999996
aF-0.34000000000000002
aI-208
aI151
aI-57
aF-109.48
aF620.08000000000004
aF100.28
aa(lp194
g3
ag4
aI0
aF23.241623163223267
aF0.23000000000000001
aF-0.95999999999999996
aF-0.34999999999999998
aI-144
aI78
aI-74
aF-110.40000000000001
aF615.48000000000002
aF102.12
aa(lp195
g3
ag4
aI0
aF23.368928194046021
aF0.23000000000000001
aF-0.95999999999999996
aF-0.34999999999999998
aI-177
aI83
aI-160
aF-109.48
aF617.32000000000005
aF103.95999999999999
aa(lp196
g3
ag4
aI0
aF23.542519092559814
aF0.23000000000000001
aF-0.95999999999999996
aF-0.35999999999999999
aI-140
aI-95
aI-14
aF-111.31999999999999
aF616.39999999999998
aF105.8
aa(lp197
g3
ag4
aI0
aF23.641408205032349
aF0.23000000000000001
aF-0.94999999999999996
aF-0.35999999999999999
aI-13
aI302
aI136
aF-108.56
aF615.48000000000002
aF107.64
aa(lp198
g3
ag4
aI0
aF23.742361068725586
aF0.23000000000000001
aF-0.94999999999999996
aF-0.37
aI228
aI271
aI-31
aF-109.48
aF613.63999999999999
aF107.64
aa(lp199
g3
ag4
aI0
aF23.85004711151123
aF0.23000000000000001
aF-0.95999999999999996
aF-0.37
aI97
aI88
aI79
aF-109.48
aF616.39999999999998
aF103.95999999999999
aa(lp200
g3
ag4
aI0
aF23.941305160522461
aF0.23000000000000001
aF-0.95999999999999996
aF-0.37
aI24
aI420
aI-70
aF-106.72
aF617.32000000000005
aF103.04000000000001
aa(lp201
g3
ag4
aI0
aF24.080323219299316
aF0.23000000000000001
aF-0.95999999999999996
aF-0.35999999999999999
aI27
aI122
aI-207
aF-110.40000000000001
aF619.15999999999997
aF106.72
aa(lp202
g3
ag4
aI0
aF24.242484092712402
aF0.23000000000000001
aF-0.94999999999999996
aF-0.35999999999999999
aI63
aI373
aI20
aF-109.48
aF616.39999999999998
aF105.8
aa(lp203
g3
ag4
aI0
aF24.341538190841675
aF0.23000000000000001
aF-0.94999999999999996
aF-0.37
aI30
aI265
aI-196
aF-111.31999999999999
aF617.32000000000005
aF106.72
aa(lp204
g3
ag4
aI0
aF24.441541194915771
aF0.23999999999999999
aF-0.94999999999999996
aF-0.38
aI171
aI99
aI38
aF-111.31999999999999
aF612.72000000000003
aF103.95999999999999
aa(lp205
g3
ag4
aI0
aF24.543707132339478
aF0.23000000000000001
aF-0.94999999999999996
aF-0.37
aI-108
aI227
aI-50
aF-111.31999999999999
aF613.63999999999999
aF104.88
aa(lp206
g3
ag4
aI0
aF24.661542177200317
aF0.23000000000000001
aF-0.94999999999999996
aF-0.37
aI-28
aI36
aI1
aF-107.64
aF472.88
aF107.64
aa(lp207
g3
ag4
aI0
aF24.780017137527466
aF0.23000000000000001
aF-0.94999999999999996
aF-0.37
aI58
aI139
aI-45
aF-107.64
aF617.32000000000005
aF109.48
aa(lp208
g3
ag4
aI0
aF24.942308187484741
aF0.23000000000000001
aF-0.94999999999999996
aF-0.37
aI-41
aI272
aI-263
aF-110.40000000000001
aF612.72000000000003
aF110.40000000000001
aa(lp209
g3
ag4
aI0
aF25.0417320728302
aF0.23000000000000001
aF-0.94999999999999996
aF-0.37
aI-108
aI112
aI-112
aF-111.31999999999999
aF611.79999999999995
aF110.40000000000001
aa.